Archive member included to satisfy reference by file (symbol)

/usr/lib/gcc/avr/5.4.0/avr5/libgcc.a(_divmodhi4.o)
                              .build/obj_cool836A_verB_RED_default/common/mousekey.o (__divmodhi4)
/usr/lib/gcc/avr/5.4.0/avr5/libgcc.a(_exit.o)
                              /usr/lib/gcc/avr/5.4.0/../../../avr/lib/avr5/crtatmega32u4.o (exit)
/usr/lib/gcc/avr/5.4.0/avr5/libgcc.a(_tablejump2.o)
                              .build/obj_cool836A_verB_RED_default/common/action.o (__tablejump2__)
/usr/lib/gcc/avr/5.4.0/avr5/libgcc.a(_copy_data.o)
                              .build/obj_cool836A_verB_RED_default/quantum/keymap_common.o (__do_copy_data)
/usr/lib/gcc/avr/5.4.0/avr5/libgcc.a(_clear_bss.o)
                              .build/obj_cool836A_verB_RED_default/quantum/matrix_common.o (__do_clear_bss)
/usr/lib/gcc/avr/5.4.0/avr5/libgcc.a(_udivmodhi4.o)
                              /usr/lib/gcc/avr/5.4.0/avr5/libgcc.a(_divmodhi4.o) (__udivmodhi4)
/usr/lib/gcc/avr/5.4.0/../../../avr/lib/avr5/libatmega32u4.a(eerd_byte.o)
                              .build/obj_cool836A_verB_RED_default/common/eeconfig.o (eeprom_read_byte)
/usr/lib/gcc/avr/5.4.0/../../../avr/lib/avr5/libatmega32u4.a(eerd_dword.o)
                              .build/obj_cool836A_verB_RED_default/common/eeconfig.o (eeprom_read_dword)
/usr/lib/gcc/avr/5.4.0/../../../avr/lib/avr5/libatmega32u4.a(eerd_word.o)
                              .build/obj_cool836A_verB_RED_default/common/eeconfig.o (eeprom_read_word)
/usr/lib/gcc/avr/5.4.0/../../../avr/lib/avr5/libatmega32u4.a(eeupd_byte.o)
                              .build/obj_cool836A_verB_RED_default/common/eeconfig.o (eeprom_update_byte)
/usr/lib/gcc/avr/5.4.0/../../../avr/lib/avr5/libatmega32u4.a(eeupd_dword.o)
                              .build/obj_cool836A_verB_RED_default/common/eeconfig.o (eeprom_update_dword)
/usr/lib/gcc/avr/5.4.0/../../../avr/lib/avr5/libatmega32u4.a(eeupd_word.o)
                              .build/obj_cool836A_verB_RED_default/common/eeconfig.o (eeprom_update_word)
/usr/lib/gcc/avr/5.4.0/../../../avr/lib/avr5/libatmega32u4.a(eerd_block.o)
                              /usr/lib/gcc/avr/5.4.0/../../../avr/lib/avr5/libatmega32u4.a(eerd_dword.o) (eeprom_read_blraw)

割り当てている共通シンボル
共通シンボル        サイズ            ファイル

USB_IsInitialized   0x1               .build/obj_cool836A_verB_RED_default/lib/lufa/LUFA/Drivers/USB/Core/USBTask.o
keymap_config       0x2               .build/obj_cool836A_verB_RED_default/common/magic.o
USB_DeviceState     0x1               .build/obj_cool836A_verB_RED_default/lib/lufa/LUFA/Drivers/USB/Core/USBTask.o
USB_Device_ConfigurationNumber
                    0x1               .build/obj_cool836A_verB_RED_default/lib/lufa/LUFA/Drivers/USB/Core/DeviceStandardReq.o
raw_matrix          0x6               .build/obj_cool836A_verB_RED_default/quantum/matrix_common.o
USB_Device_CurrentlySelfPowered
                    0x1               .build/obj_cool836A_verB_RED_default/lib/lufa/LUFA/Drivers/USB/Core/DeviceStandardReq.o
matrix              0x6               .build/obj_cool836A_verB_RED_default/quantum/matrix_common.o
USB_ControlRequest  0x8               .build/obj_cool836A_verB_RED_default/lib/lufa/LUFA/Drivers/USB/Core/USBTask.o
tp_buttons          0x2               .build/obj_cool836A_verB_RED_default/common/action.o
USB_Device_RemoteWakeupEnabled
                    0x1               .build/obj_cool836A_verB_RED_default/lib/lufa/LUFA/Drivers/USB/Core/DeviceStandardReq.o
timer_count         0x4               .build/obj_cool836A_verB_RED_default/common/avr/timer.o

破棄された入力セクション

 .data          0x0000000000000000        0x0 /usr/lib/gcc/avr/5.4.0/../../../avr/lib/avr5/crtatmega32u4.o
 .bss           0x0000000000000000        0x0 /usr/lib/gcc/avr/5.4.0/../../../avr/lib/avr5/crtatmega32u4.o
 .text          0x0000000000000000        0x0 .build/obj_cool836A_verB_RED_default/keyboards/cool836A/cool836A.o
 .data          0x0000000000000000        0x0 .build/obj_cool836A_verB_RED_default/keyboards/cool836A/cool836A.o
 .bss           0x0000000000000000        0x0 .build/obj_cool836A_verB_RED_default/keyboards/cool836A/cool836A.o
 .debug_info    0x0000000000000000       0xf9 .build/obj_cool836A_verB_RED_default/keyboards/cool836A/cool836A.o
 .debug_abbrev  0x0000000000000000       0x9c .build/obj_cool836A_verB_RED_default/keyboards/cool836A/cool836A.o
 .debug_aranges
                0x0000000000000000       0x18 .build/obj_cool836A_verB_RED_default/keyboards/cool836A/cool836A.o
 .debug_line    0x0000000000000000       0x68 .build/obj_cool836A_verB_RED_default/keyboards/cool836A/cool836A.o
 .debug_str     0x0000000000000000      0x1e8 .build/obj_cool836A_verB_RED_default/keyboards/cool836A/cool836A.o
 .comment       0x0000000000000000       0x12 .build/obj_cool836A_verB_RED_default/keyboards/cool836A/cool836A.o
 .text          0x0000000000000000        0x0 .build/obj_cool836A_verB_RED_default/keyboards/cool836A/verB_RED/verB_RED.o
 .data          0x0000000000000000        0x0 .build/obj_cool836A_verB_RED_default/keyboards/cool836A/verB_RED/verB_RED.o
 .bss           0x0000000000000000        0x0 .build/obj_cool836A_verB_RED_default/keyboards/cool836A/verB_RED/verB_RED.o
 .debug_info    0x0000000000000000       0xf9 .build/obj_cool836A_verB_RED_default/keyboards/cool836A/verB_RED/verB_RED.o
 .debug_abbrev  0x0000000000000000       0x9c .build/obj_cool836A_verB_RED_default/keyboards/cool836A/verB_RED/verB_RED.o
 .debug_aranges
                0x0000000000000000       0x18 .build/obj_cool836A_verB_RED_default/keyboards/cool836A/verB_RED/verB_RED.o
 .debug_line    0x0000000000000000       0x68 .build/obj_cool836A_verB_RED_default/keyboards/cool836A/verB_RED/verB_RED.o
 .debug_str     0x0000000000000000      0x1f1 .build/obj_cool836A_verB_RED_default/keyboards/cool836A/verB_RED/verB_RED.o
 .comment       0x0000000000000000       0x12 .build/obj_cool836A_verB_RED_default/keyboards/cool836A/verB_RED/verB_RED.o
 .text          0x0000000000000000        0x0 .build/obj_cool836A_verB_RED_default/keyboards/cool836A/keymaps/default/keymap.o
 .data          0x0000000000000000        0x0 .build/obj_cool836A_verB_RED_default/keyboards/cool836A/keymaps/default/keymap.o
 .bss           0x0000000000000000        0x0 .build/obj_cool836A_verB_RED_default/keyboards/cool836A/keymaps/default/keymap.o
 .text          0x0000000000000000        0x0 .build/obj_cool836A_verB_RED_default/quantum/quantum.o
 .data          0x0000000000000000        0x0 .build/obj_cool836A_verB_RED_default/quantum/quantum.o
 .bss           0x0000000000000000        0x0 .build/obj_cool836A_verB_RED_default/quantum/quantum.o
 .text.do_code16
                0x0000000000000000       0x5a .build/obj_cool836A_verB_RED_default/quantum/quantum.o
 .text.register_code16
                0x0000000000000000       0x2c .build/obj_cool836A_verB_RED_default/quantum/quantum.o
 .text.unregister_code16
                0x0000000000000000       0x2c .build/obj_cool836A_verB_RED_default/quantum/quantum.o
 .text.tap_code16
                0x0000000000000000       0x14 .build/obj_cool836A_verB_RED_default/quantum/quantum.o
 .text.send_char
                0x0000000000000000       0x98 .build/obj_cool836A_verB_RED_default/quantum/quantum.o
 .text.send_string_with_delay
                0x0000000000000000       0xd2 .build/obj_cool836A_verB_RED_default/quantum/quantum.o
 .text.send_string
                0x0000000000000000        0x6 .build/obj_cool836A_verB_RED_default/quantum/quantum.o
 .text.send_string_with_delay_P
                0x0000000000000000       0xda .build/obj_cool836A_verB_RED_default/quantum/quantum.o
 .text.send_string_P
                0x0000000000000000        0x6 .build/obj_cool836A_verB_RED_default/quantum/quantum.o
 .text.set_single_persistent_default_layer
                0x0000000000000000       0x28 .build/obj_cool836A_verB_RED_default/quantum/quantum.o
 .text.update_tri_layer_state
                0x0000000000000000       0xa8 .build/obj_cool836A_verB_RED_default/quantum/quantum.o
 .text.update_tri_layer
                0x0000000000000000       0x24 .build/obj_cool836A_verB_RED_default/quantum/quantum.o
 .text.tap_random_base64
                0x0000000000000000       0x92 .build/obj_cool836A_verB_RED_default/quantum/quantum.o
 .text.send_nibble
                0x0000000000000000       0x32 .build/obj_cool836A_verB_RED_default/quantum/quantum.o
 .text.send_byte
                0x0000000000000000       0x16 .build/obj_cool836A_verB_RED_default/quantum/quantum.o
 .text.send_word
                0x0000000000000000       0x12 .build/obj_cool836A_verB_RED_default/quantum/quantum.o
 .text.send_dword
                0x0000000000000000       0x20 .build/obj_cool836A_verB_RED_default/quantum/quantum.o
 .text.hex_to_keycode
                0x0000000000000000       0x1c .build/obj_cool836A_verB_RED_default/quantum/quantum.o
 .text.api_send_unicode
                0x0000000000000000        0x2 .build/obj_cool836A_verB_RED_default/quantum/quantum.o
 .text.startup_user
                0x0000000000000000        0x4 .build/obj_cool836A_verB_RED_default/quantum/quantum.o
 .progmem.data.ascii_to_keycode_lut
                0x0000000000000000       0x80 .build/obj_cool836A_verB_RED_default/quantum/quantum.o
 .progmem.data.ascii_to_altgr_lut
                0x0000000000000000       0x10 .build/obj_cool836A_verB_RED_default/quantum/quantum.o
 .progmem.data.ascii_to_shift_lut
                0x0000000000000000       0x10 .build/obj_cool836A_verB_RED_default/quantum/quantum.o
 .text          0x0000000000000000        0x0 .build/obj_cool836A_verB_RED_default/quantum/led.o
 .data          0x0000000000000000        0x0 .build/obj_cool836A_verB_RED_default/quantum/led.o
 .bss           0x0000000000000000        0x0 .build/obj_cool836A_verB_RED_default/quantum/led.o
 .text.led_init_ports
                0x0000000000000000        0x2 .build/obj_cool836A_verB_RED_default/quantum/led.o
 .text          0x0000000000000000        0x0 .build/obj_cool836A_verB_RED_default/quantum/keymap_common.o
 .data          0x0000000000000000        0x0 .build/obj_cool836A_verB_RED_default/quantum/keymap_common.o
 .bss           0x0000000000000000        0x0 .build/obj_cool836A_verB_RED_default/quantum/keymap_common.o
 .text.action_get_macro
                0x0000000000000000        0x6 .build/obj_cool836A_verB_RED_default/quantum/keymap_common.o
 .text.action_function
                0x0000000000000000        0x2 .build/obj_cool836A_verB_RED_default/quantum/keymap_common.o
 .text.keymap_function_id_to_action
                0x0000000000000000       0x10 .build/obj_cool836A_verB_RED_default/quantum/keymap_common.o
 .progmem.data.fn_actions
                0x0000000000000000        0x0 .build/obj_cool836A_verB_RED_default/quantum/keymap_common.o
 .text          0x0000000000000000        0x0 .build/obj_cool836A_verB_RED_default/quantum/keycode_config.o
 .data          0x0000000000000000        0x0 .build/obj_cool836A_verB_RED_default/quantum/keycode_config.o
 .bss           0x0000000000000000        0x0 .build/obj_cool836A_verB_RED_default/quantum/keycode_config.o
 .text          0x0000000000000000        0x0 .build/obj_cool836A_verB_RED_default/quantum/matrix_common.o
 .data          0x0000000000000000        0x0 .build/obj_cool836A_verB_RED_default/quantum/matrix_common.o
 .bss           0x0000000000000000        0x0 .build/obj_cool836A_verB_RED_default/quantum/matrix_common.o
 .text.matrix_rows
                0x0000000000000000        0x4 .build/obj_cool836A_verB_RED_default/quantum/matrix_common.o
 .text.matrix_cols
                0x0000000000000000        0x4 .build/obj_cool836A_verB_RED_default/quantum/matrix_common.o
 .text.matrix_is_on
                0x0000000000000000       0x2a .build/obj_cool836A_verB_RED_default/quantum/matrix_common.o
 .text.matrix_is_modified
                0x0000000000000000        0xa .build/obj_cool836A_verB_RED_default/quantum/matrix_common.o
 .text.matrix_key_count
                0x0000000000000000       0x2a .build/obj_cool836A_verB_RED_default/quantum/matrix_common.o
 .text.matrix_scan_custom
                0x0000000000000000        0x4 .build/obj_cool836A_verB_RED_default/quantum/matrix_common.o
 .text.matrix_init
                0x0000000000000000       0x22 .build/obj_cool836A_verB_RED_default/quantum/matrix_common.o
 .text.matrix_scan
                0x0000000000000000       0x26 .build/obj_cool836A_verB_RED_default/quantum/matrix_common.o
 .text.peek_matrix
                0x0000000000000000       0x24 .build/obj_cool836A_verB_RED_default/quantum/matrix_common.o
 .text          0x0000000000000000        0x0 .build/obj_cool836A_verB_RED_default/quantum/matrix.o
 .data          0x0000000000000000        0x0 .build/obj_cool836A_verB_RED_default/quantum/matrix.o
 .bss           0x0000000000000000        0x0 .build/obj_cool836A_verB_RED_default/quantum/matrix.o
 .text          0x0000000000000000        0x0 .build/obj_cool836A_verB_RED_default/quantum/debounce/sym_defer_g.o
 .data          0x0000000000000000        0x0 .build/obj_cool836A_verB_RED_default/quantum/debounce/sym_defer_g.o
 .bss           0x0000000000000000        0x0 .build/obj_cool836A_verB_RED_default/quantum/debounce/sym_defer_g.o
 .text.debounce_active
                0x0000000000000000        0x6 .build/obj_cool836A_verB_RED_default/quantum/debounce/sym_defer_g.o
 .text          0x0000000000000000        0x0 .build/obj_cool836A_verB_RED_default/quantum/process_keycode/process_space_cadet.o
 .data          0x0000000000000000        0x0 .build/obj_cool836A_verB_RED_default/quantum/process_keycode/process_space_cadet.o
 .bss           0x0000000000000000        0x0 .build/obj_cool836A_verB_RED_default/quantum/process_keycode/process_space_cadet.o
 .text          0x0000000000000000        0x0 .build/obj_cool836A_verB_RED_default/quantum/process_keycode/process_magic.o
 .data          0x0000000000000000        0x0 .build/obj_cool836A_verB_RED_default/quantum/process_keycode/process_magic.o
 .bss           0x0000000000000000        0x0 .build/obj_cool836A_verB_RED_default/quantum/process_keycode/process_magic.o
 .text          0x0000000000000000        0x0 .build/obj_cool836A_verB_RED_default/quantum/process_keycode/process_grave_esc.o
 .data          0x0000000000000000        0x0 .build/obj_cool836A_verB_RED_default/quantum/process_keycode/process_grave_esc.o
 .bss           0x0000000000000000        0x0 .build/obj_cool836A_verB_RED_default/quantum/process_keycode/process_grave_esc.o
 .text          0x0000000000000000        0x0 .build/obj_cool836A_verB_RED_default/common/host.o
 .data          0x0000000000000000        0x0 .build/obj_cool836A_verB_RED_default/common/host.o
 .bss           0x0000000000000000        0x0 .build/obj_cool836A_verB_RED_default/common/host.o
 .text.host_get_driver
                0x0000000000000000        0xa .build/obj_cool836A_verB_RED_default/common/host.o
 .text.host_keyboard_led_state
                0x0000000000000000       0x1a .build/obj_cool836A_verB_RED_default/common/host.o
 .text.host_last_system_report
                0x0000000000000000        0xa .build/obj_cool836A_verB_RED_default/common/host.o
 .text.host_last_consumer_report
                0x0000000000000000        0xa .build/obj_cool836A_verB_RED_default/common/host.o
 .text          0x0000000000000000        0x0 .build/obj_cool836A_verB_RED_default/common/keyboard.o
 .data          0x0000000000000000        0x0 .build/obj_cool836A_verB_RED_default/common/keyboard.o
 .bss           0x0000000000000000        0x0 .build/obj_cool836A_verB_RED_default/common/keyboard.o
 .text.is_keyboard_left
                0x0000000000000000        0x4 .build/obj_cool836A_verB_RED_default/common/keyboard.o
 .text.keyboard_set_leds
                0x0000000000000000        0x4 .build/obj_cool836A_verB_RED_default/common/keyboard.o
 .text          0x0000000000000000        0x0 .build/obj_cool836A_verB_RED_default/common/action.o
 .data          0x0000000000000000        0x0 .build/obj_cool836A_verB_RED_default/common/action.o
 .bss           0x0000000000000000        0x0 .build/obj_cool836A_verB_RED_default/common/action.o
 .text.process_record_quantum
                0x0000000000000000        0x4 .build/obj_cool836A_verB_RED_default/common/action.o
 .text.post_process_record_quantum
                0x0000000000000000        0x2 .build/obj_cool836A_verB_RED_default/common/action.o
 .text.process_record_nocache
                0x0000000000000000       0x10 .build/obj_cool836A_verB_RED_default/common/action.o
 .text.register_weak_mods
                0x0000000000000000        0xe .build/obj_cool836A_verB_RED_default/common/action.o
 .text.unregister_weak_mods
                0x0000000000000000        0xe .build/obj_cool836A_verB_RED_default/common/action.o
 .text.debug_action
                0x0000000000000000        0x2 .build/obj_cool836A_verB_RED_default/common/action.o
 COMMON         0x0000000000000000        0x2 .build/obj_cool836A_verB_RED_default/common/action.o
 .text          0x0000000000000000        0x0 .build/obj_cool836A_verB_RED_default/common/action_tapping.o
 .data          0x0000000000000000        0x0 .build/obj_cool836A_verB_RED_default/common/action_tapping.o
 .bss           0x0000000000000000        0x0 .build/obj_cool836A_verB_RED_default/common/action_tapping.o
 .text.get_tapping_term
                0x0000000000000000        0x6 .build/obj_cool836A_verB_RED_default/common/action_tapping.o
 .text          0x0000000000000000        0x0 .build/obj_cool836A_verB_RED_default/common/action_macro.o
 .data          0x0000000000000000        0x0 .build/obj_cool836A_verB_RED_default/common/action_macro.o
 .bss           0x0000000000000000        0x0 .build/obj_cool836A_verB_RED_default/common/action_macro.o
 .debug_info    0x0000000000000000       0xf9 .build/obj_cool836A_verB_RED_default/common/action_macro.o
 .debug_abbrev  0x0000000000000000       0x9c .build/obj_cool836A_verB_RED_default/common/action_macro.o
 .debug_aranges
                0x0000000000000000       0x18 .build/obj_cool836A_verB_RED_default/common/action_macro.o
 .debug_line    0x0000000000000000       0x68 .build/obj_cool836A_verB_RED_default/common/action_macro.o
 .debug_str     0x0000000000000000      0x1e9 .build/obj_cool836A_verB_RED_default/common/action_macro.o
 .comment       0x0000000000000000       0x12 .build/obj_cool836A_verB_RED_default/common/action_macro.o
 .text          0x0000000000000000        0x0 .build/obj_cool836A_verB_RED_default/common/action_layer.o
 .data          0x0000000000000000        0x0 .build/obj_cool836A_verB_RED_default/common/action_layer.o
 .bss           0x0000000000000000        0x0 .build/obj_cool836A_verB_RED_default/common/action_layer.o
 .text.layer_state_cmp
                0x0000000000000000       0x2a .build/obj_cool836A_verB_RED_default/common/action_layer.o
 .text.layer_state_is
                0x0000000000000000       0x16 .build/obj_cool836A_verB_RED_default/common/action_layer.o
 .text          0x0000000000000000        0x0 .build/obj_cool836A_verB_RED_default/common/action_util.o
 .data          0x0000000000000000        0x0 .build/obj_cool836A_verB_RED_default/common/action_util.o
 .bss           0x0000000000000000        0x0 .build/obj_cool836A_verB_RED_default/common/action_util.o
 .text.add_key  0x0000000000000000        0xe .build/obj_cool836A_verB_RED_default/common/action_util.o
 .text.del_key  0x0000000000000000        0xe .build/obj_cool836A_verB_RED_default/common/action_util.o
 .text.clear_keys
                0x0000000000000000        0xc .build/obj_cool836A_verB_RED_default/common/action_util.o
 .text.get_oneshot_locked_mods
                0x0000000000000000        0x6 .build/obj_cool836A_verB_RED_default/common/action_util.o
 .text.has_oneshot_mods_timed_out
                0x0000000000000000        0x4 .build/obj_cool836A_verB_RED_default/common/action_util.o
 .text.set_mods
                0x0000000000000000        0x6 .build/obj_cool836A_verB_RED_default/common/action_util.o
 .text.get_weak_mods
                0x0000000000000000        0x6 .build/obj_cool836A_verB_RED_default/common/action_util.o
 .text.set_weak_mods
                0x0000000000000000        0x6 .build/obj_cool836A_verB_RED_default/common/action_util.o
 .text.get_macro_mods
                0x0000000000000000        0x6 .build/obj_cool836A_verB_RED_default/common/action_util.o
 .text.add_macro_mods
                0x0000000000000000        0xc .build/obj_cool836A_verB_RED_default/common/action_util.o
 .text.del_macro_mods
                0x0000000000000000        0xe .build/obj_cool836A_verB_RED_default/common/action_util.o
 .text.set_macro_mods
                0x0000000000000000        0x6 .build/obj_cool836A_verB_RED_default/common/action_util.o
 .text.add_oneshot_mods
                0x0000000000000000       0x18 .build/obj_cool836A_verB_RED_default/common/action_util.o
 .text.del_oneshot_mods
                0x0000000000000000       0x18 .build/obj_cool836A_verB_RED_default/common/action_util.o
 .text.oneshot_locked_mods_changed_user
                0x0000000000000000        0x4 .build/obj_cool836A_verB_RED_default/common/action_util.o
 .text.oneshot_locked_mods_changed_kb
                0x0000000000000000        0x4 .build/obj_cool836A_verB_RED_default/common/action_util.o
 .text.set_oneshot_locked_mods
                0x0000000000000000       0x12 .build/obj_cool836A_verB_RED_default/common/action_util.o
 .text.clear_oneshot_locked_mods
                0x0000000000000000       0x14 .build/obj_cool836A_verB_RED_default/common/action_util.o
 .text.has_anymod
                0x0000000000000000        0x8 .build/obj_cool836A_verB_RED_default/common/action_util.o
 .bss.oneshot_locked_mods
                0x0000000000000000        0x1 .build/obj_cool836A_verB_RED_default/common/action_util.o
 .text          0x0000000000000000        0x0 .build/obj_cool836A_verB_RED_default/common/print.o
 .data          0x0000000000000000        0x0 .build/obj_cool836A_verB_RED_default/common/print.o
 .bss           0x0000000000000000        0x0 .build/obj_cool836A_verB_RED_default/common/print.o
 .debug_info    0x0000000000000000       0x56 .build/obj_cool836A_verB_RED_default/common/print.o
 .debug_abbrev  0x0000000000000000       0x26 .build/obj_cool836A_verB_RED_default/common/print.o
 .debug_aranges
                0x0000000000000000       0x18 .build/obj_cool836A_verB_RED_default/common/print.o
 .debug_line    0x0000000000000000       0x1a .build/obj_cool836A_verB_RED_default/common/print.o
 .debug_str     0x0000000000000000      0x196 .build/obj_cool836A_verB_RED_default/common/print.o
 .comment       0x0000000000000000       0x12 .build/obj_cool836A_verB_RED_default/common/print.o
 .text          0x0000000000000000        0x0 .build/obj_cool836A_verB_RED_default/common/debug.o
 .data          0x0000000000000000        0x0 .build/obj_cool836A_verB_RED_default/common/debug.o
 .bss           0x0000000000000000        0x0 .build/obj_cool836A_verB_RED_default/common/debug.o
 .text          0x0000000000000000        0x0 .build/obj_cool836A_verB_RED_default/common/sendchar_null.o
 .data          0x0000000000000000        0x0 .build/obj_cool836A_verB_RED_default/common/sendchar_null.o
 .bss           0x0000000000000000        0x0 .build/obj_cool836A_verB_RED_default/common/sendchar_null.o
 .text.sendchar
                0x0000000000000000        0x4 .build/obj_cool836A_verB_RED_default/common/sendchar_null.o
 .debug_info    0x0000000000000000       0xa0 .build/obj_cool836A_verB_RED_default/common/sendchar_null.o
 .debug_abbrev  0x0000000000000000       0x62 .build/obj_cool836A_verB_RED_default/common/sendchar_null.o
 .debug_loc     0x0000000000000000       0x21 .build/obj_cool836A_verB_RED_default/common/sendchar_null.o
 .debug_aranges
                0x0000000000000000       0x20 .build/obj_cool836A_verB_RED_default/common/sendchar_null.o
 .debug_ranges  0x0000000000000000       0x10 .build/obj_cool836A_verB_RED_default/common/sendchar_null.o
 .debug_line    0x0000000000000000       0x74 .build/obj_cool836A_verB_RED_default/common/sendchar_null.o
 .debug_str     0x0000000000000000      0x1b6 .build/obj_cool836A_verB_RED_default/common/sendchar_null.o
 .comment       0x0000000000000000       0x12 .build/obj_cool836A_verB_RED_default/common/sendchar_null.o
 .debug_frame   0x0000000000000000       0x24 .build/obj_cool836A_verB_RED_default/common/sendchar_null.o
 .text          0x0000000000000000        0x0 .build/obj_cool836A_verB_RED_default/common/util.o
 .data          0x0000000000000000        0x0 .build/obj_cool836A_verB_RED_default/common/util.o
 .bss           0x0000000000000000        0x0 .build/obj_cool836A_verB_RED_default/common/util.o
 .text.bitpop   0x0000000000000000       0x14 .build/obj_cool836A_verB_RED_default/common/util.o
 .text.bitpop16
                0x0000000000000000       0x18 .build/obj_cool836A_verB_RED_default/common/util.o
 .text.bitpop32
                0x0000000000000000       0x3a .build/obj_cool836A_verB_RED_default/common/util.o
 .text.biton    0x0000000000000000       0x28 .build/obj_cool836A_verB_RED_default/common/util.o
 .text.biton16  0x0000000000000000       0x4c .build/obj_cool836A_verB_RED_default/common/util.o
 .text.biton32  0x0000000000000000       0xa0 .build/obj_cool836A_verB_RED_default/common/util.o
 .text.bitrev   0x0000000000000000       0x24 .build/obj_cool836A_verB_RED_default/common/util.o
 .text.bitrev16
                0x0000000000000000       0x26 .build/obj_cool836A_verB_RED_default/common/util.o
 .text.bitrev32
                0x0000000000000000       0x56 .build/obj_cool836A_verB_RED_default/common/util.o
 .debug_info    0x0000000000000000      0x2a2 .build/obj_cool836A_verB_RED_default/common/util.o
 .debug_abbrev  0x0000000000000000       0xcb .build/obj_cool836A_verB_RED_default/common/util.o
 .debug_loc     0x0000000000000000      0x4fe .build/obj_cool836A_verB_RED_default/common/util.o
 .debug_aranges
                0x0000000000000000       0x60 .build/obj_cool836A_verB_RED_default/common/util.o
 .debug_ranges  0x0000000000000000       0x50 .build/obj_cool836A_verB_RED_default/common/util.o
 .debug_line    0x0000000000000000      0x23f .build/obj_cool836A_verB_RED_default/common/util.o
 .debug_str     0x0000000000000000      0x1fc .build/obj_cool836A_verB_RED_default/common/util.o
 .comment       0x0000000000000000       0x12 .build/obj_cool836A_verB_RED_default/common/util.o
 .debug_frame   0x0000000000000000      0x110 .build/obj_cool836A_verB_RED_default/common/util.o
 .text          0x0000000000000000        0x0 .build/obj_cool836A_verB_RED_default/common/eeconfig.o
 .data          0x0000000000000000        0x0 .build/obj_cool836A_verB_RED_default/common/eeconfig.o
 .bss           0x0000000000000000        0x0 .build/obj_cool836A_verB_RED_default/common/eeconfig.o
 .text.eeconfig_enable
                0x0000000000000000        0xc .build/obj_cool836A_verB_RED_default/common/eeconfig.o
 .text.eeconfig_is_disabled
                0x0000000000000000       0x14 .build/obj_cool836A_verB_RED_default/common/eeconfig.o
 .text.eeconfig_update_debug
                0x0000000000000000        0xa .build/obj_cool836A_verB_RED_default/common/eeconfig.o
 .text.eeconfig_update_default_layer
                0x0000000000000000        0xa .build/obj_cool836A_verB_RED_default/common/eeconfig.o
 .text.eeconfig_read_backlight
                0x0000000000000000        0x8 .build/obj_cool836A_verB_RED_default/common/eeconfig.o
 .text.eeconfig_update_backlight
                0x0000000000000000        0xa .build/obj_cool836A_verB_RED_default/common/eeconfig.o
 .text.eeconfig_read_audio
                0x0000000000000000        0x8 .build/obj_cool836A_verB_RED_default/common/eeconfig.o
 .text.eeconfig_update_audio
                0x0000000000000000        0xa .build/obj_cool836A_verB_RED_default/common/eeconfig.o
 .text.eeconfig_read_kb
                0x0000000000000000        0x8 .build/obj_cool836A_verB_RED_default/common/eeconfig.o
 .text.eeconfig_read_user
                0x0000000000000000        0x8 .build/obj_cool836A_verB_RED_default/common/eeconfig.o
 .text.eeconfig_read_haptic
                0x0000000000000000        0x8 .build/obj_cool836A_verB_RED_default/common/eeconfig.o
 .text.eeconfig_update_haptic
                0x0000000000000000        0xc .build/obj_cool836A_verB_RED_default/common/eeconfig.o
 .text.eeconfig_read_handedness
                0x0000000000000000       0x14 .build/obj_cool836A_verB_RED_default/common/eeconfig.o
 .text          0x0000000000000000        0x0 .build/obj_cool836A_verB_RED_default/common/report.o
 .data          0x0000000000000000        0x0 .build/obj_cool836A_verB_RED_default/common/report.o
 .bss           0x0000000000000000        0x0 .build/obj_cool836A_verB_RED_default/common/report.o
 .text.get_first_key
                0x0000000000000000        0x6 .build/obj_cool836A_verB_RED_default/common/report.o
 .text          0x0000000000000000        0x0 .build/obj_cool836A_verB_RED_default/common/avr/suspend.o
 .data          0x0000000000000000        0x0 .build/obj_cool836A_verB_RED_default/common/avr/suspend.o
 .bss           0x0000000000000000        0x0 .build/obj_cool836A_verB_RED_default/common/avr/suspend.o
 .text.suspend_idle
                0x0000000000000000       0x1a .build/obj_cool836A_verB_RED_default/common/avr/suspend.o
 .text          0x0000000000000000        0x0 .build/obj_cool836A_verB_RED_default/common/avr/timer.o
 .data          0x0000000000000000        0x0 .build/obj_cool836A_verB_RED_default/common/avr/timer.o
 .bss           0x0000000000000000        0x0 .build/obj_cool836A_verB_RED_default/common/avr/timer.o
 .text.timer_clear
                0x0000000000000000       0x18 .build/obj_cool836A_verB_RED_default/common/avr/timer.o
 .text.timer_read32
                0x0000000000000000       0x18 .build/obj_cool836A_verB_RED_default/common/avr/timer.o
 .text.timer_elapsed32
                0x0000000000000000       0x38 .build/obj_cool836A_verB_RED_default/common/avr/timer.o
 .text          0x0000000000000000        0x0 .build/obj_cool836A_verB_RED_default/common/avr/bootloader.o
 .data          0x0000000000000000        0x0 .build/obj_cool836A_verB_RED_default/common/avr/bootloader.o
 .bss           0x0000000000000000        0x0 .build/obj_cool836A_verB_RED_default/common/avr/bootloader.o
 .text          0x0000000000000000      0x15c .build/obj_cool836A_verB_RED_default/common/avr/xprintf.o
 .data          0x0000000000000000        0x0 .build/obj_cool836A_verB_RED_default/common/avr/xprintf.o
 .bss           0x0000000000000000        0x2 .build/obj_cool836A_verB_RED_default/common/avr/xprintf.o
 .stab          0x0000000000000000      0x8b8 .build/obj_cool836A_verB_RED_default/common/avr/xprintf.o
 .text          0x0000000000000000        0x0 .build/obj_cool836A_verB_RED_default/common/bootmagic_lite.o
 .data          0x0000000000000000        0x0 .build/obj_cool836A_verB_RED_default/common/bootmagic_lite.o
 .bss           0x0000000000000000        0x0 .build/obj_cool836A_verB_RED_default/common/bootmagic_lite.o
 .text          0x0000000000000000        0x0 .build/obj_cool836A_verB_RED_default/common/magic.o
 .data          0x0000000000000000        0x0 .build/obj_cool836A_verB_RED_default/common/magic.o
 .bss           0x0000000000000000        0x0 .build/obj_cool836A_verB_RED_default/common/magic.o
 .text          0x0000000000000000        0x0 .build/obj_cool836A_verB_RED_default/common/mousekey.o
 .data          0x0000000000000000        0x0 .build/obj_cool836A_verB_RED_default/common/mousekey.o
 .bss           0x0000000000000000        0x0 .build/obj_cool836A_verB_RED_default/common/mousekey.o
 .text          0x0000000000000000        0x0 .build/obj_cool836A_verB_RED_default/lufa.o
 .data          0x0000000000000000        0x0 .build/obj_cool836A_verB_RED_default/lufa.o
 .bss           0x0000000000000000        0x0 .build/obj_cool836A_verB_RED_default/lufa.o
 .text          0x0000000000000000        0x0 .build/obj_cool836A_verB_RED_default/usb_descriptor.o
 .data          0x0000000000000000        0x0 .build/obj_cool836A_verB_RED_default/usb_descriptor.o
 .bss           0x0000000000000000        0x0 .build/obj_cool836A_verB_RED_default/usb_descriptor.o
 .text          0x0000000000000000        0x0 .build/obj_cool836A_verB_RED_default/lib/lufa/LUFA/Drivers/USB/Class/Common/HIDParser.o
 .data          0x0000000000000000        0x0 .build/obj_cool836A_verB_RED_default/lib/lufa/LUFA/Drivers/USB/Class/Common/HIDParser.o
 .bss           0x0000000000000000        0x0 .build/obj_cool836A_verB_RED_default/lib/lufa/LUFA/Drivers/USB/Class/Common/HIDParser.o
 .text.USB_ProcessHIDReport
                0x0000000000000000      0x6cc .build/obj_cool836A_verB_RED_default/lib/lufa/LUFA/Drivers/USB/Class/Common/HIDParser.o
 .text.USB_GetHIDReportItemInfo
                0x0000000000000000       0xbc .build/obj_cool836A_verB_RED_default/lib/lufa/LUFA/Drivers/USB/Class/Common/HIDParser.o
 .text.USB_SetHIDReportItemInfo
                0x0000000000000000       0xc0 .build/obj_cool836A_verB_RED_default/lib/lufa/LUFA/Drivers/USB/Class/Common/HIDParser.o
 .text.USB_GetHIDReportSize
                0x0000000000000000       0x56 .build/obj_cool836A_verB_RED_default/lib/lufa/LUFA/Drivers/USB/Class/Common/HIDParser.o
 .debug_info    0x0000000000000000      0x739 .build/obj_cool836A_verB_RED_default/lib/lufa/LUFA/Drivers/USB/Class/Common/HIDParser.o
 .debug_abbrev  0x0000000000000000      0x21a .build/obj_cool836A_verB_RED_default/lib/lufa/LUFA/Drivers/USB/Class/Common/HIDParser.o
 .debug_loc     0x0000000000000000      0xadb .build/obj_cool836A_verB_RED_default/lib/lufa/LUFA/Drivers/USB/Class/Common/HIDParser.o
 .debug_aranges
                0x0000000000000000       0x38 .build/obj_cool836A_verB_RED_default/lib/lufa/LUFA/Drivers/USB/Class/Common/HIDParser.o
 .debug_ranges  0x0000000000000000       0xd0 .build/obj_cool836A_verB_RED_default/lib/lufa/LUFA/Drivers/USB/Class/Common/HIDParser.o
 .debug_line    0x0000000000000000      0x56f .build/obj_cool836A_verB_RED_default/lib/lufa/LUFA/Drivers/USB/Class/Common/HIDParser.o
 .debug_str     0x0000000000000000      0x6d3 .build/obj_cool836A_verB_RED_default/lib/lufa/LUFA/Drivers/USB/Class/Common/HIDParser.o
 .comment       0x0000000000000000       0x12 .build/obj_cool836A_verB_RED_default/lib/lufa/LUFA/Drivers/USB/Class/Common/HIDParser.o
 .debug_frame   0x0000000000000000      0x140 .build/obj_cool836A_verB_RED_default/lib/lufa/LUFA/Drivers/USB/Class/Common/HIDParser.o
 .text          0x0000000000000000        0x0 .build/obj_cool836A_verB_RED_default/lib/lufa/LUFA/Drivers/USB/Core/AVR8/Device_AVR8.o
 .data          0x0000000000000000        0x0 .build/obj_cool836A_verB_RED_default/lib/lufa/LUFA/Drivers/USB/Core/AVR8/Device_AVR8.o
 .bss           0x0000000000000000        0x0 .build/obj_cool836A_verB_RED_default/lib/lufa/LUFA/Drivers/USB/Core/AVR8/Device_AVR8.o
 .text          0x0000000000000000        0x0 .build/obj_cool836A_verB_RED_default/lib/lufa/LUFA/Drivers/USB/Core/AVR8/EndpointStream_AVR8.o
 .data          0x0000000000000000        0x0 .build/obj_cool836A_verB_RED_default/lib/lufa/LUFA/Drivers/USB/Core/AVR8/EndpointStream_AVR8.o
 .bss           0x0000000000000000        0x0 .build/obj_cool836A_verB_RED_default/lib/lufa/LUFA/Drivers/USB/Core/AVR8/EndpointStream_AVR8.o
 .text.Endpoint_Discard_Stream
                0x0000000000000000       0x6a .build/obj_cool836A_verB_RED_default/lib/lufa/LUFA/Drivers/USB/Core/AVR8/EndpointStream_AVR8.o
 .text.Endpoint_Null_Stream
                0x0000000000000000       0x6a .build/obj_cool836A_verB_RED_default/lib/lufa/LUFA/Drivers/USB/Core/AVR8/EndpointStream_AVR8.o
 .text.Endpoint_Write_Stream_BE
                0x0000000000000000       0xa0 .build/obj_cool836A_verB_RED_default/lib/lufa/LUFA/Drivers/USB/Core/AVR8/EndpointStream_AVR8.o
 .text.Endpoint_Read_Stream_LE
                0x0000000000000000       0x96 .build/obj_cool836A_verB_RED_default/lib/lufa/LUFA/Drivers/USB/Core/AVR8/EndpointStream_AVR8.o
 .text.Endpoint_Read_Stream_BE
                0x0000000000000000       0xa0 .build/obj_cool836A_verB_RED_default/lib/lufa/LUFA/Drivers/USB/Core/AVR8/EndpointStream_AVR8.o
 .text.Endpoint_Write_PStream_LE
                0x0000000000000000       0x9a .build/obj_cool836A_verB_RED_default/lib/lufa/LUFA/Drivers/USB/Core/AVR8/EndpointStream_AVR8.o
 .text.Endpoint_Write_PStream_BE
                0x0000000000000000       0xa2 .build/obj_cool836A_verB_RED_default/lib/lufa/LUFA/Drivers/USB/Core/AVR8/EndpointStream_AVR8.o
 .text.Endpoint_Write_EStream_LE
                0x0000000000000000       0x9c .build/obj_cool836A_verB_RED_default/lib/lufa/LUFA/Drivers/USB/Core/AVR8/EndpointStream_AVR8.o
 .text.Endpoint_Write_EStream_BE
                0x0000000000000000       0xa4 .build/obj_cool836A_verB_RED_default/lib/lufa/LUFA/Drivers/USB/Core/AVR8/EndpointStream_AVR8.o
 .text.Endpoint_Read_EStream_LE
                0x0000000000000000       0x9c .build/obj_cool836A_verB_RED_default/lib/lufa/LUFA/Drivers/USB/Core/AVR8/EndpointStream_AVR8.o
 .text.Endpoint_Read_EStream_BE
                0x0000000000000000       0xa4 .build/obj_cool836A_verB_RED_default/lib/lufa/LUFA/Drivers/USB/Core/AVR8/EndpointStream_AVR8.o
 .text.Endpoint_Write_Control_Stream_BE
                0x0000000000000000       0xd0 .build/obj_cool836A_verB_RED_default/lib/lufa/LUFA/Drivers/USB/Core/AVR8/EndpointStream_AVR8.o
 .text.Endpoint_Read_Control_Stream_LE
                0x0000000000000000       0x80 .build/obj_cool836A_verB_RED_default/lib/lufa/LUFA/Drivers/USB/Core/AVR8/EndpointStream_AVR8.o
 .text.Endpoint_Read_Control_Stream_BE
                0x0000000000000000       0x82 .build/obj_cool836A_verB_RED_default/lib/lufa/LUFA/Drivers/USB/Core/AVR8/EndpointStream_AVR8.o
 .text.Endpoint_Write_Control_PStream_BE
                0x0000000000000000       0xce .build/obj_cool836A_verB_RED_default/lib/lufa/LUFA/Drivers/USB/Core/AVR8/EndpointStream_AVR8.o
 .text.Endpoint_Write_Control_EStream_LE
                0x0000000000000000       0xf4 .build/obj_cool836A_verB_RED_default/lib/lufa/LUFA/Drivers/USB/Core/AVR8/EndpointStream_AVR8.o
 .text.Endpoint_Write_Control_EStream_BE
                0x0000000000000000      0x100 .build/obj_cool836A_verB_RED_default/lib/lufa/LUFA/Drivers/USB/Core/AVR8/EndpointStream_AVR8.o
 .text.Endpoint_Read_Control_EStream_LE
                0x0000000000000000       0x94 .build/obj_cool836A_verB_RED_default/lib/lufa/LUFA/Drivers/USB/Core/AVR8/EndpointStream_AVR8.o
 .text.Endpoint_Read_Control_EStream_BE
                0x0000000000000000       0x92 .build/obj_cool836A_verB_RED_default/lib/lufa/LUFA/Drivers/USB/Core/AVR8/EndpointStream_AVR8.o
 .text          0x0000000000000000        0x0 .build/obj_cool836A_verB_RED_default/lib/lufa/LUFA/Drivers/USB/Core/AVR8/Endpoint_AVR8.o
 .data          0x0000000000000000        0x0 .build/obj_cool836A_verB_RED_default/lib/lufa/LUFA/Drivers/USB/Core/AVR8/Endpoint_AVR8.o
 .bss           0x0000000000000000        0x0 .build/obj_cool836A_verB_RED_default/lib/lufa/LUFA/Drivers/USB/Core/AVR8/Endpoint_AVR8.o
 .text.Endpoint_ConfigureEndpointTable
                0x0000000000000000       0x7c .build/obj_cool836A_verB_RED_default/lib/lufa/LUFA/Drivers/USB/Core/AVR8/Endpoint_AVR8.o
 .text.Endpoint_ClearEndpoints
                0x0000000000000000       0x28 .build/obj_cool836A_verB_RED_default/lib/lufa/LUFA/Drivers/USB/Core/AVR8/Endpoint_AVR8.o
 .text          0x0000000000000000        0x0 .build/obj_cool836A_verB_RED_default/lib/lufa/LUFA/Drivers/USB/Core/AVR8/Host_AVR8.o
 .data          0x0000000000000000        0x0 .build/obj_cool836A_verB_RED_default/lib/lufa/LUFA/Drivers/USB/Core/AVR8/Host_AVR8.o
 .bss           0x0000000000000000        0x0 .build/obj_cool836A_verB_RED_default/lib/lufa/LUFA/Drivers/USB/Core/AVR8/Host_AVR8.o
 .debug_info    0x0000000000000000       0x56 .build/obj_cool836A_verB_RED_default/lib/lufa/LUFA/Drivers/USB/Core/AVR8/Host_AVR8.o
 .debug_abbrev  0x0000000000000000       0x26 .build/obj_cool836A_verB_RED_default/lib/lufa/LUFA/Drivers/USB/Core/AVR8/Host_AVR8.o
 .debug_aranges
                0x0000000000000000       0x18 .build/obj_cool836A_verB_RED_default/lib/lufa/LUFA/Drivers/USB/Core/AVR8/Host_AVR8.o
 .debug_line    0x0000000000000000       0x1a .build/obj_cool836A_verB_RED_default/lib/lufa/LUFA/Drivers/USB/Core/AVR8/Host_AVR8.o
 .debug_str     0x0000000000000000      0x1ae .build/obj_cool836A_verB_RED_default/lib/lufa/LUFA/Drivers/USB/Core/AVR8/Host_AVR8.o
 .comment       0x0000000000000000       0x12 .build/obj_cool836A_verB_RED_default/lib/lufa/LUFA/Drivers/USB/Core/AVR8/Host_AVR8.o
 .text          0x0000000000000000        0x0 .build/obj_cool836A_verB_RED_default/lib/lufa/LUFA/Drivers/USB/Core/AVR8/PipeStream_AVR8.o
 .data          0x0000000000000000        0x0 .build/obj_cool836A_verB_RED_default/lib/lufa/LUFA/Drivers/USB/Core/AVR8/PipeStream_AVR8.o
 .bss           0x0000000000000000        0x0 .build/obj_cool836A_verB_RED_default/lib/lufa/LUFA/Drivers/USB/Core/AVR8/PipeStream_AVR8.o
 .debug_info    0x0000000000000000       0x56 .build/obj_cool836A_verB_RED_default/lib/lufa/LUFA/Drivers/USB/Core/AVR8/PipeStream_AVR8.o
 .debug_abbrev  0x0000000000000000       0x26 .build/obj_cool836A_verB_RED_default/lib/lufa/LUFA/Drivers/USB/Core/AVR8/PipeStream_AVR8.o
 .debug_aranges
                0x0000000000000000       0x18 .build/obj_cool836A_verB_RED_default/lib/lufa/LUFA/Drivers/USB/Core/AVR8/PipeStream_AVR8.o
 .debug_line    0x0000000000000000       0x1a .build/obj_cool836A_verB_RED_default/lib/lufa/LUFA/Drivers/USB/Core/AVR8/PipeStream_AVR8.o
 .debug_str     0x0000000000000000      0x1b4 .build/obj_cool836A_verB_RED_default/lib/lufa/LUFA/Drivers/USB/Core/AVR8/PipeStream_AVR8.o
 .comment       0x0000000000000000       0x12 .build/obj_cool836A_verB_RED_default/lib/lufa/LUFA/Drivers/USB/Core/AVR8/PipeStream_AVR8.o
 .text          0x0000000000000000        0x0 .build/obj_cool836A_verB_RED_default/lib/lufa/LUFA/Drivers/USB/Core/AVR8/Pipe_AVR8.o
 .data          0x0000000000000000        0x0 .build/obj_cool836A_verB_RED_default/lib/lufa/LUFA/Drivers/USB/Core/AVR8/Pipe_AVR8.o
 .bss           0x0000000000000000        0x0 .build/obj_cool836A_verB_RED_default/lib/lufa/LUFA/Drivers/USB/Core/AVR8/Pipe_AVR8.o
 .debug_info    0x0000000000000000       0x56 .build/obj_cool836A_verB_RED_default/lib/lufa/LUFA/Drivers/USB/Core/AVR8/Pipe_AVR8.o
 .debug_abbrev  0x0000000000000000       0x26 .build/obj_cool836A_verB_RED_default/lib/lufa/LUFA/Drivers/USB/Core/AVR8/Pipe_AVR8.o
 .debug_aranges
                0x0000000000000000       0x18 .build/obj_cool836A_verB_RED_default/lib/lufa/LUFA/Drivers/USB/Core/AVR8/Pipe_AVR8.o
 .debug_line    0x0000000000000000       0x1a .build/obj_cool836A_verB_RED_default/lib/lufa/LUFA/Drivers/USB/Core/AVR8/Pipe_AVR8.o
 .debug_str     0x0000000000000000      0x1ae .build/obj_cool836A_verB_RED_default/lib/lufa/LUFA/Drivers/USB/Core/AVR8/Pipe_AVR8.o
 .comment       0x0000000000000000       0x12 .build/obj_cool836A_verB_RED_default/lib/lufa/LUFA/Drivers/USB/Core/AVR8/Pipe_AVR8.o
 .text          0x0000000000000000        0x0 .build/obj_cool836A_verB_RED_default/lib/lufa/LUFA/Drivers/USB/Core/AVR8/USBController_AVR8.o
 .data          0x0000000000000000        0x0 .build/obj_cool836A_verB_RED_default/lib/lufa/LUFA/Drivers/USB/Core/AVR8/USBController_AVR8.o
 .bss           0x0000000000000000        0x0 .build/obj_cool836A_verB_RED_default/lib/lufa/LUFA/Drivers/USB/Core/AVR8/USBController_AVR8.o
 .text          0x0000000000000000        0x0 .build/obj_cool836A_verB_RED_default/lib/lufa/LUFA/Drivers/USB/Core/AVR8/USBInterrupt_AVR8.o
 .data          0x0000000000000000        0x0 .build/obj_cool836A_verB_RED_default/lib/lufa/LUFA/Drivers/USB/Core/AVR8/USBInterrupt_AVR8.o
 .bss           0x0000000000000000        0x0 .build/obj_cool836A_verB_RED_default/lib/lufa/LUFA/Drivers/USB/Core/AVR8/USBInterrupt_AVR8.o
 .text          0x0000000000000000        0x0 .build/obj_cool836A_verB_RED_default/lib/lufa/LUFA/Drivers/USB/Core/ConfigDescriptors.o
 .data          0x0000000000000000        0x0 .build/obj_cool836A_verB_RED_default/lib/lufa/LUFA/Drivers/USB/Core/ConfigDescriptors.o
 .bss           0x0000000000000000        0x0 .build/obj_cool836A_verB_RED_default/lib/lufa/LUFA/Drivers/USB/Core/ConfigDescriptors.o
 .text.USB_GetNextDescriptor
                0x0000000000000000       0x3c .build/obj_cool836A_verB_RED_default/lib/lufa/LUFA/Drivers/USB/Core/ConfigDescriptors.o
 .text.USB_GetNextDescriptorOfType
                0x0000000000000000       0x38 .build/obj_cool836A_verB_RED_default/lib/lufa/LUFA/Drivers/USB/Core/ConfigDescriptors.o
 .text.USB_GetNextDescriptorOfTypeBefore
                0x0000000000000000       0x46 .build/obj_cool836A_verB_RED_default/lib/lufa/LUFA/Drivers/USB/Core/ConfigDescriptors.o
 .text.USB_GetNextDescriptorOfTypeAfter
                0x0000000000000000       0x3e .build/obj_cool836A_verB_RED_default/lib/lufa/LUFA/Drivers/USB/Core/ConfigDescriptors.o
 .text.USB_GetNextDescriptorComp
                0x0000000000000000       0x66 .build/obj_cool836A_verB_RED_default/lib/lufa/LUFA/Drivers/USB/Core/ConfigDescriptors.o
 .debug_info    0x0000000000000000      0x3d5 .build/obj_cool836A_verB_RED_default/lib/lufa/LUFA/Drivers/USB/Core/ConfigDescriptors.o
 .debug_abbrev  0x0000000000000000      0x185 .build/obj_cool836A_verB_RED_default/lib/lufa/LUFA/Drivers/USB/Core/ConfigDescriptors.o
 .debug_loc     0x0000000000000000      0x59f .build/obj_cool836A_verB_RED_default/lib/lufa/LUFA/Drivers/USB/Core/ConfigDescriptors.o
 .debug_aranges
                0x0000000000000000       0x40 .build/obj_cool836A_verB_RED_default/lib/lufa/LUFA/Drivers/USB/Core/ConfigDescriptors.o
 .debug_ranges  0x0000000000000000       0x30 .build/obj_cool836A_verB_RED_default/lib/lufa/LUFA/Drivers/USB/Core/ConfigDescriptors.o
 .debug_line    0x0000000000000000      0x1d4 .build/obj_cool836A_verB_RED_default/lib/lufa/LUFA/Drivers/USB/Core/ConfigDescriptors.o
 .debug_str     0x0000000000000000      0x3f7 .build/obj_cool836A_verB_RED_default/lib/lufa/LUFA/Drivers/USB/Core/ConfigDescriptors.o
 .comment       0x0000000000000000       0x12 .build/obj_cool836A_verB_RED_default/lib/lufa/LUFA/Drivers/USB/Core/ConfigDescriptors.o
 .debug_frame   0x0000000000000000      0x110 .build/obj_cool836A_verB_RED_default/lib/lufa/LUFA/Drivers/USB/Core/ConfigDescriptors.o
 .text          0x0000000000000000        0x0 .build/obj_cool836A_verB_RED_default/lib/lufa/LUFA/Drivers/USB/Core/DeviceStandardReq.o
 .data          0x0000000000000000        0x0 .build/obj_cool836A_verB_RED_default/lib/lufa/LUFA/Drivers/USB/Core/DeviceStandardReq.o
 .bss           0x0000000000000000        0x0 .build/obj_cool836A_verB_RED_default/lib/lufa/LUFA/Drivers/USB/Core/DeviceStandardReq.o
 .text          0x0000000000000000        0x0 .build/obj_cool836A_verB_RED_default/lib/lufa/LUFA/Drivers/USB/Core/Events.o
 .data          0x0000000000000000        0x0 .build/obj_cool836A_verB_RED_default/lib/lufa/LUFA/Drivers/USB/Core/Events.o
 .bss           0x0000000000000000        0x0 .build/obj_cool836A_verB_RED_default/lib/lufa/LUFA/Drivers/USB/Core/Events.o
 .text.USB_Event_Stub_2
                0x0000000000000000        0x2 .build/obj_cool836A_verB_RED_default/lib/lufa/LUFA/Drivers/USB/Core/Events.o
 .text.USB_Event_Stub_3
                0x0000000000000000        0x2 .build/obj_cool836A_verB_RED_default/lib/lufa/LUFA/Drivers/USB/Core/Events.o
 .text          0x0000000000000000        0x0 .build/obj_cool836A_verB_RED_default/lib/lufa/LUFA/Drivers/USB/Core/HostStandardReq.o
 .data          0x0000000000000000        0x0 .build/obj_cool836A_verB_RED_default/lib/lufa/LUFA/Drivers/USB/Core/HostStandardReq.o
 .bss           0x0000000000000000        0x0 .build/obj_cool836A_verB_RED_default/lib/lufa/LUFA/Drivers/USB/Core/HostStandardReq.o
 .debug_info    0x0000000000000000       0x56 .build/obj_cool836A_verB_RED_default/lib/lufa/LUFA/Drivers/USB/Core/HostStandardReq.o
 .debug_abbrev  0x0000000000000000       0x26 .build/obj_cool836A_verB_RED_default/lib/lufa/LUFA/Drivers/USB/Core/HostStandardReq.o
 .debug_aranges
                0x0000000000000000       0x18 .build/obj_cool836A_verB_RED_default/lib/lufa/LUFA/Drivers/USB/Core/HostStandardReq.o
 .debug_line    0x0000000000000000       0x1a .build/obj_cool836A_verB_RED_default/lib/lufa/LUFA/Drivers/USB/Core/HostStandardReq.o
 .debug_str     0x0000000000000000      0x1af .build/obj_cool836A_verB_RED_default/lib/lufa/LUFA/Drivers/USB/Core/HostStandardReq.o
 .comment       0x0000000000000000       0x12 .build/obj_cool836A_verB_RED_default/lib/lufa/LUFA/Drivers/USB/Core/HostStandardReq.o
 .text          0x0000000000000000        0x0 .build/obj_cool836A_verB_RED_default/lib/lufa/LUFA/Drivers/USB/Core/USBTask.o
 .data          0x0000000000000000        0x0 .build/obj_cool836A_verB_RED_default/lib/lufa/LUFA/Drivers/USB/Core/USBTask.o
 .bss           0x0000000000000000        0x0 .build/obj_cool836A_verB_RED_default/lib/lufa/LUFA/Drivers/USB/Core/USBTask.o
 .text          0x0000000000000000        0x0 /usr/lib/gcc/avr/5.4.0/avr5/libgcc.a(_divmodhi4.o)
 .data          0x0000000000000000        0x0 /usr/lib/gcc/avr/5.4.0/avr5/libgcc.a(_divmodhi4.o)
 .bss           0x0000000000000000        0x0 /usr/lib/gcc/avr/5.4.0/avr5/libgcc.a(_divmodhi4.o)
 .text.libgcc.mul
                0x0000000000000000        0x0 /usr/lib/gcc/avr/5.4.0/avr5/libgcc.a(_divmodhi4.o)
 .text.libgcc   0x0000000000000000        0x0 /usr/lib/gcc/avr/5.4.0/avr5/libgcc.a(_divmodhi4.o)
 .text.libgcc.prologue
                0x0000000000000000        0x0 /usr/lib/gcc/avr/5.4.0/avr5/libgcc.a(_divmodhi4.o)
 .text.libgcc.builtins
                0x0000000000000000        0x0 /usr/lib/gcc/avr/5.4.0/avr5/libgcc.a(_divmodhi4.o)
 .text.libgcc.fmul
                0x0000000000000000        0x0 /usr/lib/gcc/avr/5.4.0/avr5/libgcc.a(_divmodhi4.o)
 .text.libgcc.fixed
                0x0000000000000000        0x0 /usr/lib/gcc/avr/5.4.0/avr5/libgcc.a(_divmodhi4.o)
 .text          0x0000000000000000        0x0 /usr/lib/gcc/avr/5.4.0/avr5/libgcc.a(_exit.o)
 .data          0x0000000000000000        0x0 /usr/lib/gcc/avr/5.4.0/avr5/libgcc.a(_exit.o)
 .bss           0x0000000000000000        0x0 /usr/lib/gcc/avr/5.4.0/avr5/libgcc.a(_exit.o)
 .text.libgcc.mul
                0x0000000000000000        0x0 /usr/lib/gcc/avr/5.4.0/avr5/libgcc.a(_exit.o)
 .text.libgcc.div
                0x0000000000000000        0x0 /usr/lib/gcc/avr/5.4.0/avr5/libgcc.a(_exit.o)
 .text.libgcc   0x0000000000000000        0x0 /usr/lib/gcc/avr/5.4.0/avr5/libgcc.a(_exit.o)
 .text.libgcc.prologue
                0x0000000000000000        0x0 /usr/lib/gcc/avr/5.4.0/avr5/libgcc.a(_exit.o)
 .text.libgcc.builtins
                0x0000000000000000        0x0 /usr/lib/gcc/avr/5.4.0/avr5/libgcc.a(_exit.o)
 .text.libgcc.fmul
                0x0000000000000000        0x0 /usr/lib/gcc/avr/5.4.0/avr5/libgcc.a(_exit.o)
 .text.libgcc.fixed
                0x0000000000000000        0x0 /usr/lib/gcc/avr/5.4.0/avr5/libgcc.a(_exit.o)
 .text          0x0000000000000000        0x0 /usr/lib/gcc/avr/5.4.0/avr5/libgcc.a(_tablejump2.o)
 .data          0x0000000000000000        0x0 /usr/lib/gcc/avr/5.4.0/avr5/libgcc.a(_tablejump2.o)
 .bss           0x0000000000000000        0x0 /usr/lib/gcc/avr/5.4.0/avr5/libgcc.a(_tablejump2.o)
 .text.libgcc.mul
                0x0000000000000000        0x0 /usr/lib/gcc/avr/5.4.0/avr5/libgcc.a(_tablejump2.o)
 .text.libgcc.div
                0x0000000000000000        0x0 /usr/lib/gcc/avr/5.4.0/avr5/libgcc.a(_tablejump2.o)
 .text.libgcc.prologue
                0x0000000000000000        0x0 /usr/lib/gcc/avr/5.4.0/avr5/libgcc.a(_tablejump2.o)
 .text.libgcc.builtins
                0x0000000000000000        0x0 /usr/lib/gcc/avr/5.4.0/avr5/libgcc.a(_tablejump2.o)
 .text.libgcc.fmul
                0x0000000000000000        0x0 /usr/lib/gcc/avr/5.4.0/avr5/libgcc.a(_tablejump2.o)
 .text.libgcc.fixed
                0x0000000000000000        0x0 /usr/lib/gcc/avr/5.4.0/avr5/libgcc.a(_tablejump2.o)
 .text          0x0000000000000000        0x0 /usr/lib/gcc/avr/5.4.0/avr5/libgcc.a(_copy_data.o)
 .data          0x0000000000000000        0x0 /usr/lib/gcc/avr/5.4.0/avr5/libgcc.a(_copy_data.o)
 .bss           0x0000000000000000        0x0 /usr/lib/gcc/avr/5.4.0/avr5/libgcc.a(_copy_data.o)
 .text.libgcc.mul
                0x0000000000000000        0x0 /usr/lib/gcc/avr/5.4.0/avr5/libgcc.a(_copy_data.o)
 .text.libgcc.div
                0x0000000000000000        0x0 /usr/lib/gcc/avr/5.4.0/avr5/libgcc.a(_copy_data.o)
 .text.libgcc   0x0000000000000000        0x0 /usr/lib/gcc/avr/5.4.0/avr5/libgcc.a(_copy_data.o)
 .text.libgcc.prologue
                0x0000000000000000        0x0 /usr/lib/gcc/avr/5.4.0/avr5/libgcc.a(_copy_data.o)
 .text.libgcc.builtins
                0x0000000000000000        0x0 /usr/lib/gcc/avr/5.4.0/avr5/libgcc.a(_copy_data.o)
 .text.libgcc.fmul
                0x0000000000000000        0x0 /usr/lib/gcc/avr/5.4.0/avr5/libgcc.a(_copy_data.o)
 .text.libgcc.fixed
                0x0000000000000000        0x0 /usr/lib/gcc/avr/5.4.0/avr5/libgcc.a(_copy_data.o)
 .text          0x0000000000000000        0x0 /usr/lib/gcc/avr/5.4.0/avr5/libgcc.a(_clear_bss.o)
 .data          0x0000000000000000        0x0 /usr/lib/gcc/avr/5.4.0/avr5/libgcc.a(_clear_bss.o)
 .bss           0x0000000000000000        0x0 /usr/lib/gcc/avr/5.4.0/avr5/libgcc.a(_clear_bss.o)
 .text.libgcc.mul
                0x0000000000000000        0x0 /usr/lib/gcc/avr/5.4.0/avr5/libgcc.a(_clear_bss.o)
 .text.libgcc.div
                0x0000000000000000        0x0 /usr/lib/gcc/avr/5.4.0/avr5/libgcc.a(_clear_bss.o)
 .text.libgcc   0x0000000000000000        0x0 /usr/lib/gcc/avr/5.4.0/avr5/libgcc.a(_clear_bss.o)
 .text.libgcc.prologue
                0x0000000000000000        0x0 /usr/lib/gcc/avr/5.4.0/avr5/libgcc.a(_clear_bss.o)
 .text.libgcc.builtins
                0x0000000000000000        0x0 /usr/lib/gcc/avr/5.4.0/avr5/libgcc.a(_clear_bss.o)
 .text.libgcc.fmul
                0x0000000000000000        0x0 /usr/lib/gcc/avr/5.4.0/avr5/libgcc.a(_clear_bss.o)
 .text.libgcc.fixed
                0x0000000000000000        0x0 /usr/lib/gcc/avr/5.4.0/avr5/libgcc.a(_clear_bss.o)
 .text          0x0000000000000000        0x0 /usr/lib/gcc/avr/5.4.0/avr5/libgcc.a(_udivmodhi4.o)
 .data          0x0000000000000000        0x0 /usr/lib/gcc/avr/5.4.0/avr5/libgcc.a(_udivmodhi4.o)
 .bss           0x0000000000000000        0x0 /usr/lib/gcc/avr/5.4.0/avr5/libgcc.a(_udivmodhi4.o)
 .text.libgcc.mul
                0x0000000000000000        0x0 /usr/lib/gcc/avr/5.4.0/avr5/libgcc.a(_udivmodhi4.o)
 .text.libgcc   0x0000000000000000        0x0 /usr/lib/gcc/avr/5.4.0/avr5/libgcc.a(_udivmodhi4.o)
 .text.libgcc.prologue
                0x0000000000000000        0x0 /usr/lib/gcc/avr/5.4.0/avr5/libgcc.a(_udivmodhi4.o)
 .text.libgcc.builtins
                0x0000000000000000        0x0 /usr/lib/gcc/avr/5.4.0/avr5/libgcc.a(_udivmodhi4.o)
 .text.libgcc.fmul
                0x0000000000000000        0x0 /usr/lib/gcc/avr/5.4.0/avr5/libgcc.a(_udivmodhi4.o)
 .text.libgcc.fixed
                0x0000000000000000        0x0 /usr/lib/gcc/avr/5.4.0/avr5/libgcc.a(_udivmodhi4.o)
 .text          0x0000000000000000        0x0 /usr/lib/gcc/avr/5.4.0/../../../avr/lib/avr5/libatmega32u4.a(eerd_byte.o)
 .data          0x0000000000000000        0x0 /usr/lib/gcc/avr/5.4.0/../../../avr/lib/avr5/libatmega32u4.a(eerd_byte.o)
 .bss           0x0000000000000000        0x0 /usr/lib/gcc/avr/5.4.0/../../../avr/lib/avr5/libatmega32u4.a(eerd_byte.o)
 .text          0x0000000000000000        0x0 /usr/lib/gcc/avr/5.4.0/../../../avr/lib/avr5/libatmega32u4.a(eerd_dword.o)
 .data          0x0000000000000000        0x0 /usr/lib/gcc/avr/5.4.0/../../../avr/lib/avr5/libatmega32u4.a(eerd_dword.o)
 .bss           0x0000000000000000        0x0 /usr/lib/gcc/avr/5.4.0/../../../avr/lib/avr5/libatmega32u4.a(eerd_dword.o)
 .text.avr-libc
                0x0000000000000000        0xc /usr/lib/gcc/avr/5.4.0/../../../avr/lib/avr5/libatmega32u4.a(eerd_dword.o)
 .text          0x0000000000000000        0x0 /usr/lib/gcc/avr/5.4.0/../../../avr/lib/avr5/libatmega32u4.a(eerd_word.o)
 .data          0x0000000000000000        0x0 /usr/lib/gcc/avr/5.4.0/../../../avr/lib/avr5/libatmega32u4.a(eerd_word.o)
 .bss           0x0000000000000000        0x0 /usr/lib/gcc/avr/5.4.0/../../../avr/lib/avr5/libatmega32u4.a(eerd_word.o)
 .text          0x0000000000000000        0x0 /usr/lib/gcc/avr/5.4.0/../../../avr/lib/avr5/libatmega32u4.a(eeupd_byte.o)
 .data          0x0000000000000000        0x0 /usr/lib/gcc/avr/5.4.0/../../../avr/lib/avr5/libatmega32u4.a(eeupd_byte.o)
 .bss           0x0000000000000000        0x0 /usr/lib/gcc/avr/5.4.0/../../../avr/lib/avr5/libatmega32u4.a(eeupd_byte.o)
 .text          0x0000000000000000        0x0 /usr/lib/gcc/avr/5.4.0/../../../avr/lib/avr5/libatmega32u4.a(eeupd_dword.o)
 .data          0x0000000000000000        0x0 /usr/lib/gcc/avr/5.4.0/../../../avr/lib/avr5/libatmega32u4.a(eeupd_dword.o)
 .bss           0x0000000000000000        0x0 /usr/lib/gcc/avr/5.4.0/../../../avr/lib/avr5/libatmega32u4.a(eeupd_dword.o)
 .text          0x0000000000000000        0x0 /usr/lib/gcc/avr/5.4.0/../../../avr/lib/avr5/libatmega32u4.a(eeupd_word.o)
 .data          0x0000000000000000        0x0 /usr/lib/gcc/avr/5.4.0/../../../avr/lib/avr5/libatmega32u4.a(eeupd_word.o)
 .bss           0x0000000000000000        0x0 /usr/lib/gcc/avr/5.4.0/../../../avr/lib/avr5/libatmega32u4.a(eeupd_word.o)
 .text          0x0000000000000000        0x0 /usr/lib/gcc/avr/5.4.0/../../../avr/lib/avr5/libatmega32u4.a(eerd_block.o)
 .data          0x0000000000000000        0x0 /usr/lib/gcc/avr/5.4.0/../../../avr/lib/avr5/libatmega32u4.a(eerd_block.o)
 .bss           0x0000000000000000        0x0 /usr/lib/gcc/avr/5.4.0/../../../avr/lib/avr5/libatmega32u4.a(eerd_block.o)

メモリ設定

名前           原点             長さ             属性
text             0x0000000000000000 0x0000000000020000 xr
data             0x0000000000800060 0x000000000000ffa0 rw !x
eeprom           0x0000000000810000 0x0000000000010000 rw !x
fuse             0x0000000000820000 0x0000000000000003 rw !x
lock             0x0000000000830000 0x0000000000000400 rw !x
signature        0x0000000000840000 0x0000000000000400 rw !x
user_signatures  0x0000000000850000 0x0000000000000400 rw !x
*default*        0x0000000000000000 0xffffffffffffffff

リンカスクリプトおよびメモリマップ

セクション .data のアドレスは次に設定されました: 0x800100
LOAD /usr/lib/gcc/avr/5.4.0/../../../avr/lib/avr5/crtatmega32u4.o
LOAD .build/obj_cool836A_verB_RED_default/keyboards/cool836A/cool836A.o
LOAD .build/obj_cool836A_verB_RED_default/keyboards/cool836A/verB_RED/verB_RED.o
LOAD .build/obj_cool836A_verB_RED_default/keyboards/cool836A/keymaps/default/keymap.o
LOAD .build/obj_cool836A_verB_RED_default/quantum/quantum.o
LOAD .build/obj_cool836A_verB_RED_default/quantum/led.o
LOAD .build/obj_cool836A_verB_RED_default/quantum/keymap_common.o
LOAD .build/obj_cool836A_verB_RED_default/quantum/keycode_config.o
LOAD .build/obj_cool836A_verB_RED_default/quantum/matrix_common.o
LOAD .build/obj_cool836A_verB_RED_default/quantum/matrix.o
LOAD .build/obj_cool836A_verB_RED_default/quantum/debounce/sym_defer_g.o
LOAD .build/obj_cool836A_verB_RED_default/quantum/process_keycode/process_space_cadet.o
LOAD .build/obj_cool836A_verB_RED_default/quantum/process_keycode/process_magic.o
LOAD .build/obj_cool836A_verB_RED_default/quantum/process_keycode/process_grave_esc.o
LOAD .build/obj_cool836A_verB_RED_default/common/host.o
LOAD .build/obj_cool836A_verB_RED_default/common/keyboard.o
LOAD .build/obj_cool836A_verB_RED_default/common/action.o
LOAD .build/obj_cool836A_verB_RED_default/common/action_tapping.o
LOAD .build/obj_cool836A_verB_RED_default/common/action_macro.o
LOAD .build/obj_cool836A_verB_RED_default/common/action_layer.o
LOAD .build/obj_cool836A_verB_RED_default/common/action_util.o
LOAD .build/obj_cool836A_verB_RED_default/common/print.o
LOAD .build/obj_cool836A_verB_RED_default/common/debug.o
LOAD .build/obj_cool836A_verB_RED_default/common/sendchar_null.o
LOAD .build/obj_cool836A_verB_RED_default/common/util.o
LOAD .build/obj_cool836A_verB_RED_default/common/eeconfig.o
LOAD .build/obj_cool836A_verB_RED_default/common/report.o
LOAD .build/obj_cool836A_verB_RED_default/common/avr/suspend.o
LOAD .build/obj_cool836A_verB_RED_default/common/avr/timer.o
LOAD .build/obj_cool836A_verB_RED_default/common/avr/bootloader.o
LOAD .build/obj_cool836A_verB_RED_default/common/avr/xprintf.o
LOAD .build/obj_cool836A_verB_RED_default/common/bootmagic_lite.o
LOAD .build/obj_cool836A_verB_RED_default/common/magic.o
LOAD .build/obj_cool836A_verB_RED_default/common/mousekey.o
LOAD .build/obj_cool836A_verB_RED_default/lufa.o
LOAD .build/obj_cool836A_verB_RED_default/usb_descriptor.o
LOAD .build/obj_cool836A_verB_RED_default/lib/lufa/LUFA/Drivers/USB/Class/Common/HIDParser.o
LOAD .build/obj_cool836A_verB_RED_default/lib/lufa/LUFA/Drivers/USB/Core/AVR8/Device_AVR8.o
LOAD .build/obj_cool836A_verB_RED_default/lib/lufa/LUFA/Drivers/USB/Core/AVR8/EndpointStream_AVR8.o
LOAD .build/obj_cool836A_verB_RED_default/lib/lufa/LUFA/Drivers/USB/Core/AVR8/Endpoint_AVR8.o
LOAD .build/obj_cool836A_verB_RED_default/lib/lufa/LUFA/Drivers/USB/Core/AVR8/Host_AVR8.o
LOAD .build/obj_cool836A_verB_RED_default/lib/lufa/LUFA/Drivers/USB/Core/AVR8/PipeStream_AVR8.o
LOAD .build/obj_cool836A_verB_RED_default/lib/lufa/LUFA/Drivers/USB/Core/AVR8/Pipe_AVR8.o
LOAD .build/obj_cool836A_verB_RED_default/lib/lufa/LUFA/Drivers/USB/Core/AVR8/USBController_AVR8.o
LOAD .build/obj_cool836A_verB_RED_default/lib/lufa/LUFA/Drivers/USB/Core/AVR8/USBInterrupt_AVR8.o
LOAD .build/obj_cool836A_verB_RED_default/lib/lufa/LUFA/Drivers/USB/Core/ConfigDescriptors.o
LOAD .build/obj_cool836A_verB_RED_default/lib/lufa/LUFA/Drivers/USB/Core/DeviceStandardReq.o
LOAD .build/obj_cool836A_verB_RED_default/lib/lufa/LUFA/Drivers/USB/Core/Events.o
LOAD .build/obj_cool836A_verB_RED_default/lib/lufa/LUFA/Drivers/USB/Core/HostStandardReq.o
LOAD .build/obj_cool836A_verB_RED_default/lib/lufa/LUFA/Drivers/USB/Core/USBTask.o
LOAD /usr/lib/gcc/avr/5.4.0/../../../avr/lib/avr5/libm.a
START GROUP
LOAD /usr/lib/gcc/avr/5.4.0/avr5/libgcc.a
LOAD /usr/lib/gcc/avr/5.4.0/../../../avr/lib/avr5/libm.a
LOAD /usr/lib/gcc/avr/5.4.0/../../../avr/lib/avr5/libc.a
LOAD /usr/lib/gcc/avr/5.4.0/../../../avr/lib/avr5/libatmega32u4.a
END GROUP
                0x0000000000020000                __TEXT_REGION_LENGTH__ = DEFINED (__TEXT_REGION_LENGTH__)?__TEXT_REGION_LENGTH__:0x20000
                0x000000000000ffa0                __DATA_REGION_LENGTH__ = DEFINED (__DATA_REGION_LENGTH__)?__DATA_REGION_LENGTH__:0xffa0
                0x0000000000010000                __EEPROM_REGION_LENGTH__ = DEFINED (__EEPROM_REGION_LENGTH__)?__EEPROM_REGION_LENGTH__:0x10000
                [0x0000000000000003]                __FUSE_REGION_LENGTH__ = DEFINED (__FUSE_REGION_LENGTH__)?__FUSE_REGION_LENGTH__:0x400
                0x0000000000000400                __LOCK_REGION_LENGTH__ = DEFINED (__LOCK_REGION_LENGTH__)?__LOCK_REGION_LENGTH__:0x400
                0x0000000000000400                __SIGNATURE_REGION_LENGTH__ = DEFINED (__SIGNATURE_REGION_LENGTH__)?__SIGNATURE_REGION_LENGTH__:0x400
                0x0000000000000400                __USER_SIGNATURE_REGION_LENGTH__ = DEFINED (__USER_SIGNATURE_REGION_LENGTH__)?__USER_SIGNATURE_REGION_LENGTH__:0x400

.hash
 *(.hash)

.dynsym
 *(.dynsym)

.dynstr
 *(.dynstr)

.gnu.version
 *(.gnu.version)

.gnu.version_d
 *(.gnu.version_d)

.gnu.version_r
 *(.gnu.version_r)

.rel.init
 *(.rel.init)

.rela.init
 *(.rela.init)

.rel.text
 *(.rel.text)
 *(.rel.text.*)
 *(.rel.gnu.linkonce.t*)

.rela.text
 *(.rela.text)
 *(.rela.text.*)
 *(.rela.gnu.linkonce.t*)

.rel.fini
 *(.rel.fini)

.rela.fini
 *(.rela.fini)

.rel.rodata
 *(.rel.rodata)
 *(.rel.rodata.*)
 *(.rel.gnu.linkonce.r*)

.rela.rodata
 *(.rela.rodata)
 *(.rela.rodata.*)
 *(.rela.gnu.linkonce.r*)

.rel.data
 *(.rel.data)
 *(.rel.data.*)
 *(.rel.gnu.linkonce.d*)

.rela.data
 *(.rela.data)
 *(.rela.data.*)
 *(.rela.gnu.linkonce.d*)

.rel.ctors
 *(.rel.ctors)

.rela.ctors
 *(.rela.ctors)

.rel.dtors
 *(.rel.dtors)

.rela.dtors
 *(.rela.dtors)

.rel.got
 *(.rel.got)

.rela.got
 *(.rela.got)

.rel.bss
 *(.rel.bss)

.rela.bss
 *(.rela.bss)

.rel.plt
 *(.rel.plt)

.rela.plt
 *(.rela.plt)

.text           0x0000000000000000     0x3d5c
 *(.vectors)
 .vectors       0x0000000000000000       0xac /usr/lib/gcc/avr/5.4.0/../../../avr/lib/avr5/crtatmega32u4.o
                0x0000000000000000                __vectors
                0x0000000000000000                __vector_default
 *(.vectors)
 *(.progmem.gcc*)
 .progmem.gcc_sw_table.process_action
                0x00000000000000ac       0x18 .build/obj_cool836A_verB_RED_default/common/action.o
 .progmem.gcc_sw_table.is_tap_action
                0x00000000000000c4       0x1c .build/obj_cool836A_verB_RED_default/common/action.o
 .progmem.gcc_sw_table.USB_Device_ProcessControlRequest
                0x00000000000000e0       0x14 .build/obj_cool836A_verB_RED_default/lib/lufa/LUFA/Drivers/USB/Core/DeviceStandardReq.o
                0x00000000000000f4                . = ALIGN (0x2)
                0x00000000000000f4                __trampolines_start = .
 *(.trampolines)
 .trampolines   0x00000000000000f4        0x0 linker stubs
 *(.trampolines*)
                0x00000000000000f4                __trampolines_end = .
 *libprintf_flt.a:*(.progmem.data)
 *libc.a:*(.progmem.data)
 *(.progmem*)
 .progmem.data.keymaps
                0x00000000000000f4      0x120 .build/obj_cool836A_verB_RED_default/keyboards/cool836A/keymaps/default/keymap.o
                0x00000000000000f4                keymaps
 .progmem.data.ProductString
                0x0000000000000214       0x14 .build/obj_cool836A_verB_RED_default/usb_descriptor.o
                0x0000000000000214                ProductString
 .progmem.data.ManufacturerString
                0x0000000000000228       0x10 .build/obj_cool836A_verB_RED_default/usb_descriptor.o
                0x0000000000000228                ManufacturerString
 .progmem.data.LanguageString
                0x0000000000000238        0x4 .build/obj_cool836A_verB_RED_default/usb_descriptor.o
                0x0000000000000238                LanguageString
 .progmem.data.ConfigurationDescriptor
                0x000000000000023c       0x3b .build/obj_cool836A_verB_RED_default/usb_descriptor.o
                0x000000000000023c                ConfigurationDescriptor
 .progmem.data.DeviceDescriptor
                0x0000000000000277       0x12 .build/obj_cool836A_verB_RED_default/usb_descriptor.o
                0x0000000000000277                DeviceDescriptor
 .progmem.data.SharedReport
                0x0000000000000289       0x81 .build/obj_cool836A_verB_RED_default/usb_descriptor.o
                0x0000000000000289                SharedReport
 .progmem.data.KeyboardReport
                0x000000000000030a       0x40 .build/obj_cool836A_verB_RED_default/usb_descriptor.o
                0x000000000000030a                KeyboardReport
                0x000000000000034a                . = ALIGN (0x2)
 *(.jumptables)
 *(.jumptables*)
 *(.lowtext)
 *(.lowtext*)
                0x000000000000034a                __ctors_start = .
 *(.ctors)
                0x000000000000034a                __ctors_end = .
                0x000000000000034a                __dtors_start = .
 *(.dtors)
                0x000000000000034a                __dtors_end = .
 SORT(*)(.ctors)
 SORT(*)(.dtors)
 *(.init0)
 .init0         0x000000000000034a        0x0 /usr/lib/gcc/avr/5.4.0/../../../avr/lib/avr5/crtatmega32u4.o
                0x000000000000034a                __init
 *(.init0)
 *(.init1)
 *(.init1)
 *(.init2)
 .init2         0x000000000000034a        0xc /usr/lib/gcc/avr/5.4.0/../../../avr/lib/avr5/crtatmega32u4.o
 *(.init2)
 *(.init3)
 .init3         0x0000000000000356       0x54 .build/obj_cool836A_verB_RED_default/common/avr/bootloader.o
                0x0000000000000356                bootloader_jump_after_watchdog_reset
 *(.init3)
 *(.init4)
 .init4         0x00000000000003aa       0x16 /usr/lib/gcc/avr/5.4.0/avr5/libgcc.a(_copy_data.o)
                0x00000000000003aa                __do_copy_data
 .init4         0x00000000000003c0       0x10 /usr/lib/gcc/avr/5.4.0/avr5/libgcc.a(_clear_bss.o)
                0x00000000000003c0                __do_clear_bss
 *(.init4)
 *(.init5)
 *(.init5)
 *(.init6)
 *(.init6)
 *(.init7)
 *(.init7)
 *(.init8)
 *(.init8)
 *(.init9)
 .init9         0x00000000000003d0        0x8 /usr/lib/gcc/avr/5.4.0/../../../avr/lib/avr5/crtatmega32u4.o
 *(.init9)
 *(.text)
 .text          0x00000000000003d8        0x4 /usr/lib/gcc/avr/5.4.0/../../../avr/lib/avr5/crtatmega32u4.o
                0x00000000000003d8                __vector_38
                0x00000000000003d8                __vector_22
                0x00000000000003d8                __vector_28
                0x00000000000003d8                __vector_1
                0x00000000000003d8                __vector_32
                0x00000000000003d8                __vector_34
                0x00000000000003d8                __vector_24
                0x00000000000003d8                __bad_interrupt
                0x00000000000003d8                __vector_6
                0x00000000000003d8                __vector_31
                0x00000000000003d8                __vector_35
                0x00000000000003d8                __vector_39
                0x00000000000003d8                __vector_3
                0x00000000000003d8                __vector_23
                0x00000000000003d8                __vector_30
                0x00000000000003d8                __vector_25
                0x00000000000003d8                __vector_13
                0x00000000000003d8                __vector_17
                0x00000000000003d8                __vector_19
                0x00000000000003d8                __vector_7
                0x00000000000003d8                __vector_41
                0x00000000000003d8                __vector_27
                0x00000000000003d8                __vector_5
                0x00000000000003d8                __vector_33
                0x00000000000003d8                __vector_37
                0x00000000000003d8                __vector_4
                0x00000000000003d8                __vector_9
                0x00000000000003d8                __vector_2
                0x00000000000003d8                __vector_15
                0x00000000000003d8                __vector_36
                0x00000000000003d8                __vector_29
                0x00000000000003d8                __vector_40
                0x00000000000003d8                __vector_8
                0x00000000000003d8                __vector_26
                0x00000000000003d8                __vector_14
                0x00000000000003d8                __vector_16
                0x00000000000003d8                __vector_18
                0x00000000000003d8                __vector_20
                0x00000000000003d8                __vector_42
                0x00000000000003dc                . = ALIGN (0x2)
 *(.text.*)
 .text.process_action_kb
                0x00000000000003dc        0x4 .build/obj_cool836A_verB_RED_default/quantum/quantum.o
                0x00000000000003dc                process_action_kb
 .text.process_record_user
                0x00000000000003e0        0x4 .build/obj_cool836A_verB_RED_default/quantum/quantum.o
                0x00000000000003e0                process_record_user
 .text.process_record_kb
                0x00000000000003e4        0x4 .build/obj_cool836A_verB_RED_default/quantum/quantum.o
                0x00000000000003e4                process_record_kb
 .text.post_process_record_user
                0x00000000000003e8        0x2 .build/obj_cool836A_verB_RED_default/quantum/quantum.o
                0x00000000000003e8                post_process_record_user
 .text.post_process_record_kb
                0x00000000000003ea        0x4 .build/obj_cool836A_verB_RED_default/quantum/quantum.o
                0x00000000000003ea                post_process_record_kb
 .text.get_event_keycode
                0x00000000000003ee       0x66 .build/obj_cool836A_verB_RED_default/quantum/quantum.o
                0x00000000000003ee                get_event_keycode
 .text.get_record_keycode
                0x0000000000000454       0x12 .build/obj_cool836A_verB_RED_default/quantum/quantum.o
                0x0000000000000454                get_record_keycode
 .text.post_process_record_quantum
                0x0000000000000466       0x16 .build/obj_cool836A_verB_RED_default/quantum/quantum.o
                0x0000000000000466                post_process_record_quantum
 .text.matrix_init_quantum
                0x000000000000047c       0x14 .build/obj_cool836A_verB_RED_default/quantum/quantum.o
                0x000000000000047c                matrix_init_quantum
 .text.matrix_scan_quantum
                0x0000000000000490        0x4 .build/obj_cool836A_verB_RED_default/quantum/quantum.o
                0x0000000000000490                matrix_scan_quantum
 .text.shutdown_user
                0x0000000000000494        0x2 .build/obj_cool836A_verB_RED_default/quantum/quantum.o
                0x0000000000000494                shutdown_user
 .text.reset_keyboard
                0x0000000000000496       0x1e .build/obj_cool836A_verB_RED_default/quantum/quantum.o
                0x0000000000000496                reset_keyboard
 .text.process_record_quantum
                0x00000000000004b4       0x7a .build/obj_cool836A_verB_RED_default/quantum/quantum.o
                0x00000000000004b4                process_record_quantum
 .text.led_set_user
                0x000000000000052e        0x2 .build/obj_cool836A_verB_RED_default/quantum/led.o
                0x000000000000052e                led_set_user
 .text.led_set_kb
                0x0000000000000530        0x4 .build/obj_cool836A_verB_RED_default/quantum/led.o
                0x0000000000000530                led_set_kb
 .text.led_update_user
                0x0000000000000534        0x4 .build/obj_cool836A_verB_RED_default/quantum/led.o
                0x0000000000000534                led_update_user
 .text.led_update_kb
                0x0000000000000538        0x4 .build/obj_cool836A_verB_RED_default/quantum/led.o
                0x0000000000000538                led_update_kb
 .text.led_set  0x000000000000053c       0x12 .build/obj_cool836A_verB_RED_default/quantum/led.o
                0x000000000000053c                led_set
 .text.keymap_key_to_keycode
                0x000000000000054e       0x26 .build/obj_cool836A_verB_RED_default/quantum/keymap_common.o
                0x000000000000054e                keymap_key_to_keycode
 .text.action_for_key
                0x0000000000000574      0x204 .build/obj_cool836A_verB_RED_default/quantum/keymap_common.o
                0x0000000000000574                action_for_key
 .text.keycode_config
                0x0000000000000778      0x128 .build/obj_cool836A_verB_RED_default/quantum/keycode_config.o
                0x0000000000000778                keycode_config
 .text.mod_config
                0x00000000000008a0       0x86 .build/obj_cool836A_verB_RED_default/quantum/keycode_config.o
                0x00000000000008a0                mod_config
 .text.matrix_get_row
                0x0000000000000926        0xc .build/obj_cool836A_verB_RED_default/quantum/matrix_common.o
                0x0000000000000926                matrix_get_row
 .text.matrix_print
                0x0000000000000932        0x2 .build/obj_cool836A_verB_RED_default/quantum/matrix_common.o
                0x0000000000000932                matrix_print
 .text.matrix_io_delay
                0x0000000000000934        0x8 .build/obj_cool836A_verB_RED_default/quantum/matrix_common.o
                0x0000000000000934                matrix_io_delay
 .text.matrix_init_custom
                0x000000000000093c        0x2 .build/obj_cool836A_verB_RED_default/quantum/matrix_common.o
                0x000000000000093c                matrix_init_custom
 .text.matrix_scan_user
                0x000000000000093e        0x4 .build/obj_cool836A_verB_RED_default/quantum/matrix_common.o
                0x000000000000093e                matrix_scan_user
 .text.matrix_scan_kb
                0x0000000000000942        0x4 .build/obj_cool836A_verB_RED_default/quantum/matrix_common.o
                0x0000000000000942                matrix_scan_kb
 .text.matrix_init_user
                0x0000000000000946        0x4 .build/obj_cool836A_verB_RED_default/quantum/matrix_common.o
                0x0000000000000946                matrix_init_user
 .text.matrix_init_kb
                0x000000000000094a        0x4 .build/obj_cool836A_verB_RED_default/quantum/matrix_common.o
                0x000000000000094a                matrix_init_kb
 .text.setPinInputHigh_atomic
                0x000000000000094e       0x2e .build/obj_cool836A_verB_RED_default/quantum/matrix.o
 .text.matrix_init
                0x000000000000097c       0x4c .build/obj_cool836A_verB_RED_default/quantum/matrix.o
                0x000000000000097c                matrix_init
 .text.matrix_scan
                0x00000000000009c8      0x10e .build/obj_cool836A_verB_RED_default/quantum/matrix.o
                0x00000000000009c8                matrix_scan
 .text.debounce_init
                0x0000000000000ad6        0x2 .build/obj_cool836A_verB_RED_default/quantum/debounce/sym_defer_g.o
                0x0000000000000ad6                debounce_init
 .text.debounce
                0x0000000000000ad8       0x6c .build/obj_cool836A_verB_RED_default/quantum/debounce/sym_defer_g.o
                0x0000000000000ad8                debounce
 .text.perform_space_cadet
                0x0000000000000b44       0xe6 .build/obj_cool836A_verB_RED_default/quantum/process_keycode/process_space_cadet.o
                0x0000000000000b44                perform_space_cadet
 .text.process_space_cadet
                0x0000000000000c2a       0xa4 .build/obj_cool836A_verB_RED_default/quantum/process_keycode/process_space_cadet.o
                0x0000000000000c2a                process_space_cadet
 .text.process_magic
                0x0000000000000cce      0x256 .build/obj_cool836A_verB_RED_default/quantum/process_keycode/process_magic.o
                0x0000000000000cce                process_magic
 .text.process_grave_esc
                0x0000000000000f24       0x62 .build/obj_cool836A_verB_RED_default/quantum/process_keycode/process_grave_esc.o
                0x0000000000000f24                process_grave_esc
 .text.host_set_driver
                0x0000000000000f86        0xa .build/obj_cool836A_verB_RED_default/common/host.o
                0x0000000000000f86                host_set_driver
 .text.host_keyboard_leds
                0x0000000000000f90       0x18 .build/obj_cool836A_verB_RED_default/common/host.o
                0x0000000000000f90                host_keyboard_leds
 .text.host_keyboard_send
                0x0000000000000fa8       0x16 .build/obj_cool836A_verB_RED_default/common/host.o
                0x0000000000000fa8                host_keyboard_send
 .text.host_mouse_send
                0x0000000000000fbe       0x1c .build/obj_cool836A_verB_RED_default/common/host.o
                0x0000000000000fbe                host_mouse_send
 .text.host_system_send
                0x0000000000000fda       0x2c .build/obj_cool836A_verB_RED_default/common/host.o
                0x0000000000000fda                host_system_send
 .text.host_consumer_send
                0x0000000000001006       0x2c .build/obj_cool836A_verB_RED_default/common/host.o
                0x0000000000001006                host_consumer_send
 .text.disable_jtag
                0x0000000000001032        0xe .build/obj_cool836A_verB_RED_default/common/keyboard.o
                0x0000000000001032                disable_jtag
 .text.is_keyboard_master
                0x0000000000001040        0x4 .build/obj_cool836A_verB_RED_default/common/keyboard.o
                0x0000000000001040                is_keyboard_master
 .text.should_process_keypress
                0x0000000000001044        0x4 .build/obj_cool836A_verB_RED_default/common/keyboard.o
                0x0000000000001044                should_process_keypress
 .text.housekeeping_task_user
                0x0000000000001048        0x2 .build/obj_cool836A_verB_RED_default/common/keyboard.o
                0x0000000000001048                housekeeping_task_user
 .text.housekeeping_task_kb
                0x000000000000104a        0x4 .build/obj_cool836A_verB_RED_default/common/keyboard.o
                0x000000000000104a                housekeeping_task_kb
 .text.keyboard_post_init_user
                0x000000000000104e        0x4 .build/obj_cool836A_verB_RED_default/common/keyboard.o
                0x000000000000104e                keyboard_post_init_user
 .text.keyboard_post_init_kb
                0x0000000000001052        0x4 .build/obj_cool836A_verB_RED_default/common/keyboard.o
                0x0000000000001052                keyboard_post_init_kb
 .text.keyboard_pre_init_user
                0x0000000000001056        0x4 .build/obj_cool836A_verB_RED_default/common/keyboard.o
                0x0000000000001056                keyboard_pre_init_user
 .text.keyboard_pre_init_kb
                0x000000000000105a        0x4 .build/obj_cool836A_verB_RED_default/common/keyboard.o
                0x000000000000105a                keyboard_pre_init_kb
 .text.matrix_setup
                0x000000000000105e        0x4 .build/obj_cool836A_verB_RED_default/common/keyboard.o
                0x000000000000105e                matrix_setup
 .text.keyboard_setup
                0x0000000000001062        0xc .build/obj_cool836A_verB_RED_default/common/keyboard.o
                0x0000000000001062                keyboard_setup
 .text.keyboard_init
                0x000000000000106e       0x10 .build/obj_cool836A_verB_RED_default/common/keyboard.o
                0x000000000000106e                keyboard_init
 .text.keyboard_task
                0x000000000000107e      0x138 .build/obj_cool836A_verB_RED_default/common/keyboard.o
                0x000000000000107e                keyboard_task
 .text.action_exec
                0x00000000000011b6       0x5c .build/obj_cool836A_verB_RED_default/common/action.o
                0x00000000000011b6                action_exec
 .text.process_record_tap_hint
                0x0000000000001212        0xc .build/obj_cool836A_verB_RED_default/common/action.o
                0x0000000000001212                process_record_tap_hint
 .text.register_code
                0x000000000000121e      0x154 .build/obj_cool836A_verB_RED_default/common/action.o
                0x000000000000121e                register_code
 .text.unregister_code
                0x0000000000001372       0xd0 .build/obj_cool836A_verB_RED_default/common/action.o
                0x0000000000001372                unregister_code
 .text.tap_code
                0x0000000000001442       0x26 .build/obj_cool836A_verB_RED_default/common/action.o
                0x0000000000001442                tap_code
 .text.register_mods
                0x0000000000001468        0xe .build/obj_cool836A_verB_RED_default/common/action.o
                0x0000000000001468                register_mods
 .text.unregister_mods
                0x0000000000001476        0xe .build/obj_cool836A_verB_RED_default/common/action.o
                0x0000000000001476                unregister_mods
 .text.process_action
                0x0000000000001484      0x42e .build/obj_cool836A_verB_RED_default/common/action.o
                0x0000000000001484                process_action
 .text.process_record_handler
                0x00000000000018b2       0x30 .build/obj_cool836A_verB_RED_default/common/action.o
                0x00000000000018b2                process_record_handler
 .text.process_record
                0x00000000000018e2       0x60 .build/obj_cool836A_verB_RED_default/common/action.o
                0x00000000000018e2                process_record
 .text.clear_keyboard_but_mods_and_keys
                0x0000000000001942       0x24 .build/obj_cool836A_verB_RED_default/common/action.o
                0x0000000000001942                clear_keyboard_but_mods_and_keys
 .text.clear_keyboard_but_mods
                0x0000000000001966       0x10 .build/obj_cool836A_verB_RED_default/common/action.o
                0x0000000000001966                clear_keyboard_but_mods
 .text.clear_keyboard
                0x0000000000001976        0x8 .build/obj_cool836A_verB_RED_default/common/action.o
                0x0000000000001976                clear_keyboard
 .text.is_tap_action
                0x000000000000197e       0x48 .build/obj_cool836A_verB_RED_default/common/action.o
                0x000000000000197e                is_tap_action
 .text.is_tap_key
                0x00000000000019c6        0xa .build/obj_cool836A_verB_RED_default/common/action.o
                0x00000000000019c6                is_tap_key
 .text.debug_event
                0x00000000000019d0       0x1e .build/obj_cool836A_verB_RED_default/common/action.o
                0x00000000000019d0                debug_event
 .text.debug_record
                0x00000000000019ee       0x20 .build/obj_cool836A_verB_RED_default/common/action.o
                0x00000000000019ee                debug_record
 .text.debug_waiting_buffer
                0x0000000000001a0e       0x42 .build/obj_cool836A_verB_RED_default/common/action_tapping.o
 .text.debug_tapping_key
                0x0000000000001a50       0x1c .build/obj_cool836A_verB_RED_default/common/action_tapping.o
 .text.waiting_buffer_scan_tap
                0x0000000000001a6c       0xd8 .build/obj_cool836A_verB_RED_default/common/action_tapping.o
 .text.process_tapping
                0x0000000000001b44      0x3a4 .build/obj_cool836A_verB_RED_default/common/action_tapping.o
 .text.action_tapping_process
                0x0000000000001ee8      0x15c .build/obj_cool836A_verB_RED_default/common/action_tapping.o
                0x0000000000001ee8                action_tapping_process
 .text.default_layer_debug
                0x0000000000002044        0x2 .build/obj_cool836A_verB_RED_default/common/action_layer.o
                0x0000000000002044                default_layer_debug
 .text.layer_state_set_user
                0x0000000000002046        0x2 .build/obj_cool836A_verB_RED_default/common/action_layer.o
                0x0000000000002046                layer_state_set_user
 .text.default_layer_state_set_user
                0x0000000000002048        0x4 .build/obj_cool836A_verB_RED_default/common/action_layer.o
                0x0000000000002048                default_layer_state_set_user
 .text.default_layer_state_set_kb
                0x000000000000204c        0x4 .build/obj_cool836A_verB_RED_default/common/action_layer.o
                0x000000000000204c                default_layer_state_set_kb
 .text.default_layer_state_set
                0x0000000000002050       0x18 .build/obj_cool836A_verB_RED_default/common/action_layer.o
 .text.default_layer_set
                0x0000000000002068        0x4 .build/obj_cool836A_verB_RED_default/common/action_layer.o
                0x0000000000002068                default_layer_set
 .text.default_layer_or
                0x000000000000206c       0x24 .build/obj_cool836A_verB_RED_default/common/action_layer.o
                0x000000000000206c                default_layer_or
 .text.default_layer_and
                0x0000000000002090       0x24 .build/obj_cool836A_verB_RED_default/common/action_layer.o
                0x0000000000002090                default_layer_and
 .text.default_layer_xor
                0x00000000000020b4       0x24 .build/obj_cool836A_verB_RED_default/common/action_layer.o
                0x00000000000020b4                default_layer_xor
 .text.layer_state_set_kb
                0x00000000000020d8        0x4 .build/obj_cool836A_verB_RED_default/common/action_layer.o
                0x00000000000020d8                layer_state_set_kb
 .text.layer_state_set
                0x00000000000020dc       0x18 .build/obj_cool836A_verB_RED_default/common/action_layer.o
                0x00000000000020dc                layer_state_set
 .text.layer_clear
                0x00000000000020f4        0xa .build/obj_cool836A_verB_RED_default/common/action_layer.o
                0x00000000000020f4                layer_clear
 .text.layer_move
                0x00000000000020fe       0x2a .build/obj_cool836A_verB_RED_default/common/action_layer.o
                0x00000000000020fe                layer_move
 .text.layer_on
                0x0000000000002128       0x42 .build/obj_cool836A_verB_RED_default/common/action_layer.o
                0x0000000000002128                layer_on
 .text.layer_off
                0x000000000000216a       0x4a .build/obj_cool836A_verB_RED_default/common/action_layer.o
                0x000000000000216a                layer_off
 .text.layer_invert
                0x00000000000021b4       0x42 .build/obj_cool836A_verB_RED_default/common/action_layer.o
                0x00000000000021b4                layer_invert
 .text.layer_or
                0x00000000000021f6       0x24 .build/obj_cool836A_verB_RED_default/common/action_layer.o
                0x00000000000021f6                layer_or
 .text.layer_and
                0x000000000000221a       0x24 .build/obj_cool836A_verB_RED_default/common/action_layer.o
                0x000000000000221a                layer_and
 .text.layer_xor
                0x000000000000223e       0x24 .build/obj_cool836A_verB_RED_default/common/action_layer.o
                0x000000000000223e                layer_xor
 .text.layer_debug
                0x0000000000002262        0x2 .build/obj_cool836A_verB_RED_default/common/action_layer.o
                0x0000000000002262                layer_debug
 .text.update_source_layers_cache
                0x0000000000002264       0x58 .build/obj_cool836A_verB_RED_default/common/action_layer.o
                0x0000000000002264                update_source_layers_cache
 .text.read_source_layers_cache
                0x00000000000022bc       0x5a .build/obj_cool836A_verB_RED_default/common/action_layer.o
                0x00000000000022bc                read_source_layers_cache
 .text.layer_switch_get_layer
                0x0000000000002316       0x84 .build/obj_cool836A_verB_RED_default/common/action_layer.o
                0x0000000000002316                layer_switch_get_layer
 .text.layer_switch_get_action
                0x000000000000239a       0x16 .build/obj_cool836A_verB_RED_default/common/action_layer.o
                0x000000000000239a                layer_switch_get_action
 .text.store_or_get_action
                0x00000000000023b0       0x46 .build/obj_cool836A_verB_RED_default/common/action_layer.o
                0x00000000000023b0                store_or_get_action
 .text.get_oneshot_layer
                0x00000000000023f6        0xc .build/obj_cool836A_verB_RED_default/common/action_util.o
                0x00000000000023f6                get_oneshot_layer
 .text.get_oneshot_layer_state
                0x0000000000002402        0x8 .build/obj_cool836A_verB_RED_default/common/action_util.o
                0x0000000000002402                get_oneshot_layer_state
 .text.is_oneshot_layer_active
                0x000000000000240a        0xe .build/obj_cool836A_verB_RED_default/common/action_util.o
                0x000000000000240a                is_oneshot_layer_active
 .text.get_mods
                0x0000000000002418        0x6 .build/obj_cool836A_verB_RED_default/common/action_util.o
                0x0000000000002418                get_mods
 .text.add_mods
                0x000000000000241e        0xc .build/obj_cool836A_verB_RED_default/common/action_util.o
                0x000000000000241e                add_mods
 .text.del_mods
                0x000000000000242a        0xe .build/obj_cool836A_verB_RED_default/common/action_util.o
                0x000000000000242a                del_mods
 .text.clear_mods
                0x0000000000002438        0x6 .build/obj_cool836A_verB_RED_default/common/action_util.o
                0x0000000000002438                clear_mods
 .text.add_weak_mods
                0x000000000000243e        0xc .build/obj_cool836A_verB_RED_default/common/action_util.o
                0x000000000000243e                add_weak_mods
 .text.del_weak_mods
                0x000000000000244a        0xe .build/obj_cool836A_verB_RED_default/common/action_util.o
                0x000000000000244a                del_weak_mods
 .text.clear_weak_mods
                0x0000000000002458        0x6 .build/obj_cool836A_verB_RED_default/common/action_util.o
                0x0000000000002458                clear_weak_mods
 .text.clear_macro_mods
                0x000000000000245e        0x6 .build/obj_cool836A_verB_RED_default/common/action_util.o
                0x000000000000245e                clear_macro_mods
 .text.get_oneshot_mods
                0x0000000000002464        0x6 .build/obj_cool836A_verB_RED_default/common/action_util.o
                0x0000000000002464                get_oneshot_mods
 .text.oneshot_layer_changed_user
                0x000000000000246a        0x2 .build/obj_cool836A_verB_RED_default/common/action_util.o
                0x000000000000246a                oneshot_layer_changed_user
 .text.oneshot_mods_changed_user
                0x000000000000246c        0x4 .build/obj_cool836A_verB_RED_default/common/action_util.o
                0x000000000000246c                oneshot_mods_changed_user
 .text.oneshot_mods_changed_kb
                0x0000000000002470        0x4 .build/obj_cool836A_verB_RED_default/common/action_util.o
                0x0000000000002470                oneshot_mods_changed_kb
 .text.set_oneshot_mods
                0x0000000000002474       0x12 .build/obj_cool836A_verB_RED_default/common/action_util.o
                0x0000000000002474                set_oneshot_mods
 .text.clear_oneshot_mods
                0x0000000000002486       0x14 .build/obj_cool836A_verB_RED_default/common/action_util.o
                0x0000000000002486                clear_oneshot_mods
 .text.send_keyboard_report
                0x000000000000249a       0x66 .build/obj_cool836A_verB_RED_default/common/action_util.o
                0x000000000000249a                send_keyboard_report
 .text.oneshot_layer_changed_kb
                0x0000000000002500        0x4 .build/obj_cool836A_verB_RED_default/common/action_util.o
                0x0000000000002500                oneshot_layer_changed_kb
 .text.set_oneshot_layer
                0x0000000000002504       0x20 .build/obj_cool836A_verB_RED_default/common/action_util.o
                0x0000000000002504                set_oneshot_layer
 .text.reset_oneshot_layer
                0x0000000000002524        0xa .build/obj_cool836A_verB_RED_default/common/action_util.o
                0x0000000000002524                reset_oneshot_layer
 .text.clear_oneshot_layer_state
                0x000000000000252e       0x32 .build/obj_cool836A_verB_RED_default/common/action_util.o
                0x000000000000252e                clear_oneshot_layer_state
 .text.eeconfig_disable
                0x0000000000002560        0xc .build/obj_cool836A_verB_RED_default/common/eeconfig.o
                0x0000000000002560                eeconfig_disable
 .text.eeconfig_is_enabled
                0x000000000000256c       0x16 .build/obj_cool836A_verB_RED_default/common/eeconfig.o
                0x000000000000256c                eeconfig_is_enabled
 .text.eeconfig_read_debug
                0x0000000000002582        0x8 .build/obj_cool836A_verB_RED_default/common/eeconfig.o
                0x0000000000002582                eeconfig_read_debug
 .text.eeconfig_read_default_layer
                0x000000000000258a        0x8 .build/obj_cool836A_verB_RED_default/common/eeconfig.o
                0x000000000000258a                eeconfig_read_default_layer
 .text.eeconfig_read_keymap
                0x0000000000002592       0x22 .build/obj_cool836A_verB_RED_default/common/eeconfig.o
                0x0000000000002592                eeconfig_read_keymap
 .text.eeconfig_update_keymap
                0x00000000000025b4       0x1a .build/obj_cool836A_verB_RED_default/common/eeconfig.o
                0x00000000000025b4                eeconfig_update_keymap
 .text.eeconfig_update_kb
                0x00000000000025ce        0xc .build/obj_cool836A_verB_RED_default/common/eeconfig.o
                0x00000000000025ce                eeconfig_update_kb
 .text.eeconfig_update_user
                0x00000000000025da        0xc .build/obj_cool836A_verB_RED_default/common/eeconfig.o
                0x00000000000025da                eeconfig_update_user
 .text.eeconfig_init_user
                0x00000000000025e6        0xa .build/obj_cool836A_verB_RED_default/common/eeconfig.o
                0x00000000000025e6                eeconfig_init_user
 .text.eeconfig_init_kb
                0x00000000000025f0        0xe .build/obj_cool836A_verB_RED_default/common/eeconfig.o
                0x00000000000025f0                eeconfig_init_kb
 .text.eeconfig_init_quantum
                0x00000000000025fe       0xbc .build/obj_cool836A_verB_RED_default/common/eeconfig.o
                0x00000000000025fe                eeconfig_init_quantum
 .text.eeconfig_init
                0x00000000000026ba        0x4 .build/obj_cool836A_verB_RED_default/common/eeconfig.o
                0x00000000000026ba                eeconfig_init
 .text.eeconfig_update_handedness
                0x00000000000026be        0xa .build/obj_cool836A_verB_RED_default/common/eeconfig.o
                0x00000000000026be                eeconfig_update_handedness
 .text.has_anykey
                0x00000000000026c8       0x18 .build/obj_cool836A_verB_RED_default/common/report.o
                0x00000000000026c8                has_anykey
 .text.is_key_pressed
                0x00000000000026e0       0x1e .build/obj_cool836A_verB_RED_default/common/report.o
                0x00000000000026e0                is_key_pressed
 .text.add_key_byte
                0x00000000000026fe       0x34 .build/obj_cool836A_verB_RED_default/common/report.o
                0x00000000000026fe                add_key_byte
 .text.del_key_byte
                0x0000000000002732       0x1a .build/obj_cool836A_verB_RED_default/common/report.o
                0x0000000000002732                del_key_byte
 .text.add_key_to_report
                0x000000000000274c        0x4 .build/obj_cool836A_verB_RED_default/common/report.o
                0x000000000000274c                add_key_to_report
 .text.del_key_from_report
                0x0000000000002750        0x4 .build/obj_cool836A_verB_RED_default/common/report.o
                0x0000000000002750                del_key_from_report
 .text.clear_keys_from_report
                0x0000000000002754        0xe .build/obj_cool836A_verB_RED_default/common/report.o
                0x0000000000002754                clear_keys_from_report
 .text.suspend_wakeup_init_user
                0x0000000000002762        0x2 .build/obj_cool836A_verB_RED_default/common/avr/suspend.o
                0x0000000000002762                suspend_wakeup_init_user
 .text.matrix_power_down
                0x0000000000002764        0x4 .build/obj_cool836A_verB_RED_default/common/avr/suspend.o
                0x0000000000002764                matrix_power_down
 .text.matrix_power_up
                0x0000000000002768        0x4 .build/obj_cool836A_verB_RED_default/common/avr/suspend.o
                0x0000000000002768                matrix_power_up
 .text.suspend_wakeup_condition
                0x000000000000276c       0x28 .build/obj_cool836A_verB_RED_default/common/avr/suspend.o
                0x000000000000276c                suspend_wakeup_condition
 .text.suspend_power_down_user
                0x0000000000002794        0x4 .build/obj_cool836A_verB_RED_default/common/avr/suspend.o
                0x0000000000002794                suspend_power_down_user
 .text.suspend_power_down_kb
                0x0000000000002798        0x4 .build/obj_cool836A_verB_RED_default/common/avr/suspend.o
                0x0000000000002798                suspend_power_down_kb
 .text.suspend_power_down
                0x000000000000279c       0x60 .build/obj_cool836A_verB_RED_default/common/avr/suspend.o
                0x000000000000279c                suspend_power_down
 .text.suspend_wakeup_init_kb
                0x00000000000027fc        0x4 .build/obj_cool836A_verB_RED_default/common/avr/suspend.o
                0x00000000000027fc                suspend_wakeup_init_kb
 .text.suspend_wakeup_init
                0x0000000000002800       0x10 .build/obj_cool836A_verB_RED_default/common/avr/suspend.o
                0x0000000000002800                suspend_wakeup_init
 .text.__vector_12
                0x0000000000002810       0x52 .build/obj_cool836A_verB_RED_default/common/avr/suspend.o
                0x0000000000002810                __vector_12
 .text.timer_init
                0x0000000000002862       0x12 .build/obj_cool836A_verB_RED_default/common/avr/timer.o
                0x0000000000002862                timer_init
 .text.timer_read
                0x0000000000002874       0x18 .build/obj_cool836A_verB_RED_default/common/avr/timer.o
                0x0000000000002874                timer_read
 .text.timer_elapsed
                0x000000000000288c       0x1e .build/obj_cool836A_verB_RED_default/common/avr/timer.o
                0x000000000000288c                timer_elapsed
 .text.__vector_21
                0x00000000000028aa       0x4c .build/obj_cool836A_verB_RED_default/common/avr/timer.o
                0x00000000000028aa                __vector_21
 .text.bootloader_jump
                0x00000000000028f6       0x48 .build/obj_cool836A_verB_RED_default/common/avr/bootloader.o
                0x00000000000028f6                bootloader_jump
 .text.bootmagic_lite_reset_eeprom
                0x000000000000293e        0x4 .build/obj_cool836A_verB_RED_default/common/bootmagic_lite.o
                0x000000000000293e                bootmagic_lite_reset_eeprom
 .text.bootmagic_lite
                0x0000000000002942       0x28 .build/obj_cool836A_verB_RED_default/common/bootmagic_lite.o
                0x0000000000002942                bootmagic_lite
 .text.magic    0x000000000000296a       0x44 .build/obj_cool836A_verB_RED_default/common/magic.o
                0x000000000000296a                magic
 .text.move_unit
                0x00000000000029ae       0x92 .build/obj_cool836A_verB_RED_default/common/mousekey.o
 .text.wheel_unit
                0x0000000000002a40       0x72 .build/obj_cool836A_verB_RED_default/common/mousekey.o
 .text.mousekey_on
                0x0000000000002ab2       0xd0 .build/obj_cool836A_verB_RED_default/common/mousekey.o
                0x0000000000002ab2                mousekey_on
 .text.mousekey_off
                0x0000000000002b82      0x10a .build/obj_cool836A_verB_RED_default/common/mousekey.o
                0x0000000000002b82                mousekey_off
 .text.mousekey_send
                0x0000000000002c8c       0x3c .build/obj_cool836A_verB_RED_default/common/mousekey.o
                0x0000000000002c8c                mousekey_send
 .text.mousekey_task
                0x0000000000002cc8      0x226 .build/obj_cool836A_verB_RED_default/common/mousekey.o
                0x0000000000002cc8                mousekey_task
 .text.mousekey_clear
                0x0000000000002eee       0x1c .build/obj_cool836A_verB_RED_default/common/mousekey.o
                0x0000000000002eee                mousekey_clear
 .text.keyboard_leds
                0x0000000000002f0a        0x6 .build/obj_cool836A_verB_RED_default/lufa.o
 .text.send_extra
                0x0000000000002f10       0x66 .build/obj_cool836A_verB_RED_default/lufa.o
 .text.send_consumer
                0x0000000000002f76        0x8 .build/obj_cool836A_verB_RED_default/lufa.o
 .text.send_system
                0x0000000000002f7e        0x8 .build/obj_cool836A_verB_RED_default/lufa.o
 .text.send_mouse
                0x0000000000002f86       0x3e .build/obj_cool836A_verB_RED_default/lufa.o
 .text.send_keyboard
                0x0000000000002fc4       0x58 .build/obj_cool836A_verB_RED_default/lufa.o
 .text.EVENT_USB_Device_Connect
                0x000000000000301c       0x1c .build/obj_cool836A_verB_RED_default/lufa.o
                0x000000000000301c                EVENT_USB_Device_Connect
 .text.EVENT_USB_Device_Disconnect
                0x0000000000003038        0x6 .build/obj_cool836A_verB_RED_default/lufa.o
                0x0000000000003038                EVENT_USB_Device_Disconnect
 .text.EVENT_USB_Device_Reset
                0x000000000000303e        0x2 .build/obj_cool836A_verB_RED_default/lufa.o
                0x000000000000303e                EVENT_USB_Device_Reset
 .text.EVENT_USB_Device_Suspend
                0x0000000000003040        0x2 .build/obj_cool836A_verB_RED_default/lufa.o
                0x0000000000003040                EVENT_USB_Device_Suspend
 .text.EVENT_USB_Device_WakeUp
                0x0000000000003042        0x4 .build/obj_cool836A_verB_RED_default/lufa.o
                0x0000000000003042                EVENT_USB_Device_WakeUp
 .text.EVENT_USB_Device_ConfigurationChanged
                0x0000000000003046       0x14 .build/obj_cool836A_verB_RED_default/lufa.o
                0x0000000000003046                EVENT_USB_Device_ConfigurationChanged
 .text.EVENT_USB_Device_ControlRequest
                0x000000000000305a      0x17a .build/obj_cool836A_verB_RED_default/lufa.o
                0x000000000000305a                EVENT_USB_Device_ControlRequest
 .text.startup.main
                0x00000000000031d4       0x86 .build/obj_cool836A_verB_RED_default/lufa.o
                0x00000000000031d4                main
 .text.CALLBACK_USB_GetDescriptor
                0x000000000000325a        0x4 .build/obj_cool836A_verB_RED_default/lufa.o
                0x000000000000325a                CALLBACK_USB_GetDescriptor
 .text.get_usb_descriptor
                0x000000000000325e       0xb2 .build/obj_cool836A_verB_RED_default/usb_descriptor.o
                0x000000000000325e                get_usb_descriptor
 .text.USB_Device_SendRemoteWakeup
                0x0000000000003310       0x2c .build/obj_cool836A_verB_RED_default/lib/lufa/LUFA/Drivers/USB/Core/AVR8/Device_AVR8.o
                0x0000000000003310                USB_Device_SendRemoteWakeup
 .text.Endpoint_Write_Stream_LE
                0x000000000000333c       0x96 .build/obj_cool836A_verB_RED_default/lib/lufa/LUFA/Drivers/USB/Core/AVR8/EndpointStream_AVR8.o
                0x000000000000333c                Endpoint_Write_Stream_LE
 .text.Endpoint_Write_Control_Stream_LE
                0x00000000000033d2       0xbc .build/obj_cool836A_verB_RED_default/lib/lufa/LUFA/Drivers/USB/Core/AVR8/EndpointStream_AVR8.o
                0x00000000000033d2                Endpoint_Write_Control_Stream_LE
 .text.Endpoint_Write_Control_PStream_LE
                0x000000000000348e       0xc2 .build/obj_cool836A_verB_RED_default/lib/lufa/LUFA/Drivers/USB/Core/AVR8/EndpointStream_AVR8.o
                0x000000000000348e                Endpoint_Write_Control_PStream_LE
 .text.Endpoint_ConfigureEndpoint_Prv
                0x0000000000003550       0x6a .build/obj_cool836A_verB_RED_default/lib/lufa/LUFA/Drivers/USB/Core/AVR8/Endpoint_AVR8.o
                0x0000000000003550                Endpoint_ConfigureEndpoint_Prv
 .text.Endpoint_ClearStatusStage
                0x00000000000035ba       0x3e .build/obj_cool836A_verB_RED_default/lib/lufa/LUFA/Drivers/USB/Core/AVR8/Endpoint_AVR8.o
                0x00000000000035ba                Endpoint_ClearStatusStage
 .text.Endpoint_WaitUntilReady
                0x00000000000035f8       0x66 .build/obj_cool836A_verB_RED_default/lib/lufa/LUFA/Drivers/USB/Core/AVR8/Endpoint_AVR8.o
                0x00000000000035f8                Endpoint_WaitUntilReady
 .text.USB_Disable
                0x000000000000365e       0x34 .build/obj_cool836A_verB_RED_default/lib/lufa/LUFA/Drivers/USB/Core/AVR8/USBController_AVR8.o
                0x000000000000365e                USB_Disable
 .text.USB_ResetInterface
                0x0000000000003692       0x86 .build/obj_cool836A_verB_RED_default/lib/lufa/LUFA/Drivers/USB/Core/AVR8/USBController_AVR8.o
                0x0000000000003692                USB_ResetInterface
 .text.USB_Init
                0x0000000000003718       0x22 .build/obj_cool836A_verB_RED_default/lib/lufa/LUFA/Drivers/USB/Core/AVR8/USBController_AVR8.o
                0x0000000000003718                USB_Init
 .text.USB_INT_DisableAllInterrupts
                0x000000000000373a       0x10 .build/obj_cool836A_verB_RED_default/lib/lufa/LUFA/Drivers/USB/Core/AVR8/USBInterrupt_AVR8.o
                0x000000000000373a                USB_INT_DisableAllInterrupts
 .text.USB_INT_ClearAllInterrupts
                0x000000000000374a        0xa .build/obj_cool836A_verB_RED_default/lib/lufa/LUFA/Drivers/USB/Core/AVR8/USBInterrupt_AVR8.o
                0x000000000000374a                USB_INT_ClearAllInterrupts
 .text.__vector_10
                0x0000000000003754      0x1a4 .build/obj_cool836A_verB_RED_default/lib/lufa/LUFA/Drivers/USB/Core/AVR8/USBInterrupt_AVR8.o
                0x0000000000003754                __vector_10
 .text.__vector_11
                0x00000000000038f8       0x88 .build/obj_cool836A_verB_RED_default/lib/lufa/LUFA/Drivers/USB/Core/AVR8/USBInterrupt_AVR8.o
                0x00000000000038f8                __vector_11
 .text.USB_Device_ProcessControlRequest
                0x0000000000003980      0x2c0 .build/obj_cool836A_verB_RED_default/lib/lufa/LUFA/Drivers/USB/Core/DeviceStandardReq.o
                0x0000000000003980                USB_Device_ProcessControlRequest
 .text.USB_Event_Stub
                0x0000000000003c40        0x2 .build/obj_cool836A_verB_RED_default/lib/lufa/LUFA/Drivers/USB/Core/Events.o
                0x0000000000003c40                USB_Event_Stub
                0x0000000000003c40                EVENT_USB_Device_StartOfFrame
 .text.USB_USBTask
                0x0000000000003c42       0x36 .build/obj_cool836A_verB_RED_default/lib/lufa/LUFA/Drivers/USB/Core/USBTask.o
                0x0000000000003c42                USB_USBTask
 .text.libgcc.div
                0x0000000000003c78       0x28 /usr/lib/gcc/avr/5.4.0/avr5/libgcc.a(_divmodhi4.o)
                0x0000000000003c78                __divmodhi4
                0x0000000000003c78                _div
 .text.libgcc   0x0000000000003ca0        0xc /usr/lib/gcc/avr/5.4.0/avr5/libgcc.a(_tablejump2.o)
                0x0000000000003ca0                __tablejump2__
 .text.libgcc.div
                0x0000000000003cac       0x28 /usr/lib/gcc/avr/5.4.0/avr5/libgcc.a(_udivmodhi4.o)
                0x0000000000003cac                __udivmodhi4
 .text.avr-libc
                0x0000000000003cd4       0x10 /usr/lib/gcc/avr/5.4.0/../../../avr/lib/avr5/libatmega32u4.a(eerd_byte.o)
                0x0000000000003cd4                eeprom_read_byte
 .text.avr-libc
                0x0000000000003ce4        0xc /usr/lib/gcc/avr/5.4.0/../../../avr/lib/avr5/libatmega32u4.a(eerd_word.o)
                0x0000000000003ce4                eeprom_read_word
 .text.avr-libc
                0x0000000000003cf0       0x24 /usr/lib/gcc/avr/5.4.0/../../../avr/lib/avr5/libatmega32u4.a(eeupd_byte.o)
                0x0000000000003cf0                eeprom_update_byte
                0x0000000000003cf2                eeprom_update_r18
 .text.avr-libc
                0x0000000000003d14       0x18 /usr/lib/gcc/avr/5.4.0/../../../avr/lib/avr5/libatmega32u4.a(eeupd_dword.o)
                0x0000000000003d14                eeprom_update_dword
                0x0000000000003d14                eeprom_update_float
 .text.avr-libc
                0x0000000000003d2c        0xc /usr/lib/gcc/avr/5.4.0/../../../avr/lib/avr5/libatmega32u4.a(eeupd_word.o)
                0x0000000000003d2c                eeprom_update_word
 .text.avr-libc
                0x0000000000003d38       0x20 /usr/lib/gcc/avr/5.4.0/../../../avr/lib/avr5/libatmega32u4.a(eerd_block.o)
                0x0000000000003d38                eeprom_read_block
                0x0000000000003d3c                eeprom_read_blraw
                0x0000000000003d58                . = ALIGN (0x2)
 *(.fini9)
 .fini9         0x0000000000003d58        0x0 /usr/lib/gcc/avr/5.4.0/avr5/libgcc.a(_exit.o)
                0x0000000000003d58                exit
                0x0000000000003d58                _exit
 *(.fini9)
 *(.fini8)
 *(.fini8)
 *(.fini7)
 *(.fini7)
 *(.fini6)
 *(.fini6)
 *(.fini5)
 *(.fini5)
 *(.fini4)
 *(.fini4)
 *(.fini3)
 *(.fini3)
 *(.fini2)
 *(.fini2)
 *(.fini1)
 *(.fini1)
 *(.fini0)
 .fini0         0x0000000000003d58        0x4 /usr/lib/gcc/avr/5.4.0/avr5/libgcc.a(_exit.o)
 *(.fini0)
                0x0000000000003d5c                _etext = .

.data           0x0000000000800100       0x84 ロードアドレス 0x0000000000003d5c
                0x0000000000800100                PROVIDE (__data_start, .)
 *(.data)
 *(.data*)
 .data.keyboard_report
                0x0000000000800100        0x2 .build/obj_cool836A_verB_RED_default/common/action_util.o
                0x0000000000800100                keyboard_report
 .data.mk_wheel_time_to_max
                0x0000000000800102        0x1 .build/obj_cool836A_verB_RED_default/common/mousekey.o
                0x0000000000800102                mk_wheel_time_to_max
 .data.mk_wheel_max_speed
                0x0000000000800103        0x1 .build/obj_cool836A_verB_RED_default/common/mousekey.o
                0x0000000000800103                mk_wheel_max_speed
 .data.mk_wheel_interval
                0x0000000000800104        0x1 .build/obj_cool836A_verB_RED_default/common/mousekey.o
                0x0000000000800104                mk_wheel_interval
 .data.mk_wheel_delay
                0x0000000000800105        0x1 .build/obj_cool836A_verB_RED_default/common/mousekey.o
                0x0000000000800105                mk_wheel_delay
 .data.mk_time_to_max
                0x0000000000800106        0x1 .build/obj_cool836A_verB_RED_default/common/mousekey.o
                0x0000000000800106                mk_time_to_max
 .data.mk_max_speed
                0x0000000000800107        0x1 .build/obj_cool836A_verB_RED_default/common/mousekey.o
                0x0000000000800107                mk_max_speed
 .data.mk_interval
                0x0000000000800108        0x1 .build/obj_cool836A_verB_RED_default/common/mousekey.o
                0x0000000000800108                mk_interval
 .data.mk_delay
                0x0000000000800109        0x1 .build/obj_cool836A_verB_RED_default/common/mousekey.o
                0x0000000000800109                mk_delay
 .data.lufa_driver
                0x000000000080010a        0xa .build/obj_cool836A_verB_RED_default/lufa.o
                0x000000000080010a                lufa_driver
 .data.keyboard_protocol
                0x0000000000800114        0x1 .build/obj_cool836A_verB_RED_default/lufa.o
                0x0000000000800114                keyboard_protocol
 *(.gnu.linkonce.d*)
 *(.rodata)
 *(.rodata*)
 .rodata.CSWTCH.3
                0x0000000000800115       0x2e .build/obj_cool836A_verB_RED_default/quantum/keymap_common.o
 .rodata.CSWTCH.1
                0x0000000000800143        0x3 .build/obj_cool836A_verB_RED_default/quantum/keymap_common.o
 .rodata.col_pins
                0x0000000000800146        0x6 .build/obj_cool836A_verB_RED_default/quantum/matrix.o
 .rodata.row_pins
                0x000000000080014c        0x6 .build/obj_cool836A_verB_RED_default/quantum/matrix.o
 .rodata.CSWTCH.13
                0x0000000000800152       0x2e .build/obj_cool836A_verB_RED_default/common/action.o
 .rodata.CSWTCH.11
                0x0000000000800180        0x3 .build/obj_cool836A_verB_RED_default/common/action.o
 *(.gnu.linkonce.r*)
                0x0000000000800184                . = ALIGN (0x2)
 *fill*         0x0000000000800183        0x1 
                0x0000000000800184                _edata = .
                0x0000000000800184                PROVIDE (__data_end, .)

.bss            0x0000000000800184       0xb3
                0x0000000000800184                PROVIDE (__bss_start, .)
 *(.bss)
 *(.bss*)
 .bss.debouncing_time
                0x0000000000800184        0x2 .build/obj_cool836A_verB_RED_default/quantum/debounce/sym_defer_g.o
 .bss.debouncing
                0x0000000000800186        0x1 .build/obj_cool836A_verB_RED_default/quantum/debounce/sym_defer_g.o
 .bss.sc_timer  0x0000000000800187        0x2 .build/obj_cool836A_verB_RED_default/quantum/process_keycode/process_space_cadet.o
 .bss.sc_last   0x0000000000800189        0x1 .build/obj_cool836A_verB_RED_default/quantum/process_keycode/process_space_cadet.o
 .bss.grave_esc_was_shifted
                0x000000000080018a        0x1 .build/obj_cool836A_verB_RED_default/quantum/process_keycode/process_grave_esc.o
 .bss.last_consumer_report
                0x000000000080018b        0x2 .build/obj_cool836A_verB_RED_default/common/host.o
 .bss.last_system_report
                0x000000000080018d        0x2 .build/obj_cool836A_verB_RED_default/common/host.o
 .bss.driver    0x000000000080018f        0x2 .build/obj_cool836A_verB_RED_default/common/host.o
 .bss.led_status.3077
                0x0000000000800191        0x1 .build/obj_cool836A_verB_RED_default/common/keyboard.o
 .bss.matrix_prev.3076
                0x0000000000800192        0x6 .build/obj_cool836A_verB_RED_default/common/keyboard.o
 .bss.disable_action_cache
                0x0000000000800198        0x1 .build/obj_cool836A_verB_RED_default/common/action.o
                0x0000000000800198                disable_action_cache
 .bss.waiting_buffer_tail
                0x0000000000800199        0x1 .build/obj_cool836A_verB_RED_default/common/action_tapping.o
 .bss.waiting_buffer_head
                0x000000000080019a        0x1 .build/obj_cool836A_verB_RED_default/common/action_tapping.o
 .bss.waiting_buffer
                0x000000000080019b       0x30 .build/obj_cool836A_verB_RED_default/common/action_tapping.o
 .bss.tapping_key
                0x00000000008001cb        0x6 .build/obj_cool836A_verB_RED_default/common/action_tapping.o
 .bss.source_layers_cache
                0x00000000008001d1       0x19 .build/obj_cool836A_verB_RED_default/common/action_layer.o
                0x00000000008001d1                source_layers_cache
 .bss.layer_state
                0x00000000008001ea        0x4 .build/obj_cool836A_verB_RED_default/common/action_layer.o
                0x00000000008001ea                layer_state
 .bss.default_layer_state
                0x00000000008001ee        0x4 .build/obj_cool836A_verB_RED_default/common/action_layer.o
                0x00000000008001ee                default_layer_state
 .bss.oneshot_layer_data
                0x00000000008001f2        0x1 .build/obj_cool836A_verB_RED_default/common/action_util.o
 .bss.oneshot_mods
                0x00000000008001f3        0x1 .build/obj_cool836A_verB_RED_default/common/action_util.o
 .bss.__compound_literal.0
                0x00000000008001f4        0x8 .build/obj_cool836A_verB_RED_default/common/action_util.o
 .bss.macro_mods
                0x00000000008001fc        0x1 .build/obj_cool836A_verB_RED_default/common/action_util.o
 .bss.weak_mods
                0x00000000008001fd        0x1 .build/obj_cool836A_verB_RED_default/common/action_util.o
 .bss.real_mods
                0x00000000008001fe        0x1 .build/obj_cool836A_verB_RED_default/common/action_util.o
 .bss.debug_config
                0x00000000008001ff        0x1 .build/obj_cool836A_verB_RED_default/common/debug.o
                0x00000000008001ff                debug_config
 .bss.wdt_timeout
                0x0000000000800200        0x1 .build/obj_cool836A_verB_RED_default/common/avr/suspend.o
 .bss.last_timer_w
                0x0000000000800201        0x2 .build/obj_cool836A_verB_RED_default/common/mousekey.o
 .bss.last_timer_c
                0x0000000000800203        0x2 .build/obj_cool836A_verB_RED_default/common/mousekey.o
 .bss.mousekey_wheel_repeat
                0x0000000000800205        0x1 .build/obj_cool836A_verB_RED_default/common/mousekey.o
 .bss.mousekey_repeat
                0x0000000000800206        0x1 .build/obj_cool836A_verB_RED_default/common/mousekey.o
 .bss.mousekey_accel
                0x0000000000800207        0x1 .build/obj_cool836A_verB_RED_default/common/mousekey.o
 .bss.mouse_report
                0x0000000000800208        0x6 .build/obj_cool836A_verB_RED_default/common/mousekey.o
 .bss.keyboard_report_sent
                0x000000000080020e        0x8 .build/obj_cool836A_verB_RED_default/lufa.o
 .bss.keyboard_led_state
                0x0000000000800216        0x1 .build/obj_cool836A_verB_RED_default/lufa.o
 .bss.keyboard_idle
                0x0000000000800217        0x1 .build/obj_cool836A_verB_RED_default/lufa.o
                0x0000000000800217                keyboard_idle
 *(COMMON)
 COMMON         0x0000000000800218        0xc .build/obj_cool836A_verB_RED_default/quantum/matrix_common.o
                0x0000000000800218                raw_matrix
                0x000000000080021e                matrix
 COMMON         0x0000000000800224        0x4 .build/obj_cool836A_verB_RED_default/common/avr/timer.o
                0x0000000000800224                timer_count
 COMMON         0x0000000000800228        0x2 .build/obj_cool836A_verB_RED_default/common/magic.o
                0x0000000000800228                keymap_config
 COMMON         0x000000000080022a        0x3 .build/obj_cool836A_verB_RED_default/lib/lufa/LUFA/Drivers/USB/Core/DeviceStandardReq.o
                0x000000000080022a                USB_Device_ConfigurationNumber
                0x000000000080022b                USB_Device_CurrentlySelfPowered
                0x000000000080022c                USB_Device_RemoteWakeupEnabled
 COMMON         0x000000000080022d        0xa .build/obj_cool836A_verB_RED_default/lib/lufa/LUFA/Drivers/USB/Core/USBTask.o
                0x000000000080022d                USB_IsInitialized
                0x000000000080022e                USB_DeviceState
                0x000000000080022f                USB_ControlRequest
                0x0000000000800237                PROVIDE (__bss_end, .)
                0x0000000000003d5c                __data_load_start = LOADADDR (.data)
                0x0000000000003de0                __data_load_end = (__data_load_start + SIZEOF (.data))

.noinit         0x0000000000800237        0x4
                [!provide]                        PROVIDE (__noinit_start, .)
 *(.noinit*)
 .noinit        0x0000000000800237        0x4 .build/obj_cool836A_verB_RED_default/common/avr/bootloader.o
                0x0000000000800237                reset_key
                [!provide]                        PROVIDE (__noinit_end, .)
                0x000000000080023b                _end = .
                [!provide]                        PROVIDE (__heap_start, .)

.eeprom         0x0000000000810000        0x0
 *(.eeprom*)
                0x0000000000810000                __eeprom_end = .

.fuse
 *(.fuse)
 *(.lfuse)
 *(.hfuse)
 *(.efuse)

.lock
 *(.lock*)

.signature
 *(.signature*)

.user_signatures
 *(.user_signatures*)

.stab
 *(.stab)

.stabstr        0x0000000000000000       0x6d
 *(.stabstr)
 .stabstr       0x0000000000000000       0x6d .build/obj_cool836A_verB_RED_default/common/avr/xprintf.o

.stab.excl
 *(.stab.excl)

.stab.exclstr
 *(.stab.exclstr)

.stab.index
 *(.stab.index)

.stab.indexstr
 *(.stab.indexstr)

.comment        0x0000000000000000       0x11
 *(.comment)
 .comment       0x0000000000000000       0x11 .build/obj_cool836A_verB_RED_default/keyboards/cool836A/keymaps/default/keymap.o
                                         0x12 (緩和前のサイズ)
 .comment       0x0000000000000011       0x12 .build/obj_cool836A_verB_RED_default/quantum/quantum.o
 .comment       0x0000000000000011       0x12 .build/obj_cool836A_verB_RED_default/quantum/led.o
 .comment       0x0000000000000011       0x12 .build/obj_cool836A_verB_RED_default/quantum/keymap_common.o
 .comment       0x0000000000000011       0x12 .build/obj_cool836A_verB_RED_default/quantum/keycode_config.o
 .comment       0x0000000000000011       0x12 .build/obj_cool836A_verB_RED_default/quantum/matrix_common.o
 .comment       0x0000000000000011       0x12 .build/obj_cool836A_verB_RED_default/quantum/matrix.o
 .comment       0x0000000000000011       0x12 .build/obj_cool836A_verB_RED_default/quantum/debounce/sym_defer_g.o
 .comment       0x0000000000000011       0x12 .build/obj_cool836A_verB_RED_default/quantum/process_keycode/process_space_cadet.o
 .comment       0x0000000000000011       0x12 .build/obj_cool836A_verB_RED_default/quantum/process_keycode/process_magic.o
 .comment       0x0000000000000011       0x12 .build/obj_cool836A_verB_RED_default/quantum/process_keycode/process_grave_esc.o
 .comment       0x0000000000000011       0x12 .build/obj_cool836A_verB_RED_default/common/host.o
 .comment       0x0000000000000011       0x12 .build/obj_cool836A_verB_RED_default/common/keyboard.o
 .comment       0x0000000000000011       0x12 .build/obj_cool836A_verB_RED_default/common/action.o
 .comment       0x0000000000000011       0x12 .build/obj_cool836A_verB_RED_default/common/action_tapping.o
 .comment       0x0000000000000011       0x12 .build/obj_cool836A_verB_RED_default/common/action_layer.o
 .comment       0x0000000000000011       0x12 .build/obj_cool836A_verB_RED_default/common/action_util.o
 .comment       0x0000000000000011       0x12 .build/obj_cool836A_verB_RED_default/common/debug.o
 .comment       0x0000000000000011       0x12 .build/obj_cool836A_verB_RED_default/common/eeconfig.o
 .comment       0x0000000000000011       0x12 .build/obj_cool836A_verB_RED_default/common/report.o
 .comment       0x0000000000000011       0x12 .build/obj_cool836A_verB_RED_default/common/avr/suspend.o
 .comment       0x0000000000000011       0x12 .build/obj_cool836A_verB_RED_default/common/avr/timer.o
 .comment       0x0000000000000011       0x12 .build/obj_cool836A_verB_RED_default/common/avr/bootloader.o
 .comment       0x0000000000000011       0x12 .build/obj_cool836A_verB_RED_default/common/bootmagic_lite.o
 .comment       0x0000000000000011       0x12 .build/obj_cool836A_verB_RED_default/common/magic.o
 .comment       0x0000000000000011       0x12 .build/obj_cool836A_verB_RED_default/common/mousekey.o
 .comment       0x0000000000000011       0x12 .build/obj_cool836A_verB_RED_default/lufa.o
 .comment       0x0000000000000011       0x12 .build/obj_cool836A_verB_RED_default/usb_descriptor.o
 .comment       0x0000000000000011       0x12 .build/obj_cool836A_verB_RED_default/lib/lufa/LUFA/Drivers/USB/Core/AVR8/Device_AVR8.o
 .comment       0x0000000000000011       0x12 .build/obj_cool836A_verB_RED_default/lib/lufa/LUFA/Drivers/USB/Core/AVR8/EndpointStream_AVR8.o
 .comment       0x0000000000000011       0x12 .build/obj_cool836A_verB_RED_default/lib/lufa/LUFA/Drivers/USB/Core/AVR8/Endpoint_AVR8.o
 .comment       0x0000000000000011       0x12 .build/obj_cool836A_verB_RED_default/lib/lufa/LUFA/Drivers/USB/Core/AVR8/USBController_AVR8.o
 .comment       0x0000000000000011       0x12 .build/obj_cool836A_verB_RED_default/lib/lufa/LUFA/Drivers/USB/Core/AVR8/USBInterrupt_AVR8.o
 .comment       0x0000000000000011       0x12 .build/obj_cool836A_verB_RED_default/lib/lufa/LUFA/Drivers/USB/Core/DeviceStandardReq.o
 .comment       0x0000000000000011       0x12 .build/obj_cool836A_verB_RED_default/lib/lufa/LUFA/Drivers/USB/Core/Events.o
 .comment       0x0000000000000011       0x12 .build/obj_cool836A_verB_RED_default/lib/lufa/LUFA/Drivers/USB/Core/USBTask.o

.note.gnu.avr.deviceinfo
                0x0000000000000000       0x40
 .note.gnu.avr.deviceinfo
                0x0000000000000000       0x40 /usr/lib/gcc/avr/5.4.0/../../../avr/lib/avr5/crtatmega32u4.o

.note.gnu.build-id
 *(.note.gnu.build-id)

.debug
 *(.debug)

.line
 *(.line)

.debug_srcinfo
 *(.debug_srcinfo)

.debug_sfnames
 *(.debug_sfnames)

.debug_aranges  0x0000000000000000      0xcb0
 *(.debug_aranges)
 .debug_aranges
                0x0000000000000000       0x18 .build/obj_cool836A_verB_RED_default/keyboards/cool836A/keymaps/default/keymap.o
 .debug_aranges
                0x0000000000000018      0x118 .build/obj_cool836A_verB_RED_default/quantum/quantum.o
 .debug_aranges
                0x0000000000000130       0x48 .build/obj_cool836A_verB_RED_default/quantum/led.o
 .debug_aranges
                0x0000000000000178       0x40 .build/obj_cool836A_verB_RED_default/quantum/keymap_common.o
 .debug_aranges
                0x00000000000001b8       0x28 .build/obj_cool836A_verB_RED_default/quantum/keycode_config.o
 .debug_aranges
                0x00000000000001e0       0x88 .build/obj_cool836A_verB_RED_default/quantum/matrix_common.o
 .debug_aranges
                0x0000000000000268       0x30 .build/obj_cool836A_verB_RED_default/quantum/matrix.o
 .debug_aranges
                0x0000000000000298       0x30 .build/obj_cool836A_verB_RED_default/quantum/debounce/sym_defer_g.o
 .debug_aranges
                0x00000000000002c8       0x28 .build/obj_cool836A_verB_RED_default/quantum/process_keycode/process_space_cadet.o
 .debug_aranges
                0x00000000000002f0       0x20 .build/obj_cool836A_verB_RED_default/quantum/process_keycode/process_magic.o
 .debug_aranges
                0x0000000000000310       0x20 .build/obj_cool836A_verB_RED_default/quantum/process_keycode/process_grave_esc.o
 .debug_aranges
                0x0000000000000330       0x68 .build/obj_cool836A_verB_RED_default/common/host.o
 .debug_aranges
                0x0000000000000398       0x68 .build/obj_cool836A_verB_RED_default/common/keyboard.o
 .debug_aranges
                0x0000000000000400       0xd0 .build/obj_cool836A_verB_RED_default/common/action.o
 .debug_aranges
                0x00000000000004d0       0x48 .build/obj_cool836A_verB_RED_default/common/action_tapping.o
 .debug_aranges
                0x0000000000000518       0xe0 .build/obj_cool836A_verB_RED_default/common/action_layer.o
 .debug_aranges
                0x00000000000005f8      0x150 .build/obj_cool836A_verB_RED_default/common/action_util.o
 .debug_aranges
                0x0000000000000748       0x18 .build/obj_cool836A_verB_RED_default/common/debug.o
 .debug_aranges
                0x0000000000000760       0xe8 .build/obj_cool836A_verB_RED_default/common/eeconfig.o
 .debug_aranges
                0x0000000000000848       0x58 .build/obj_cool836A_verB_RED_default/common/report.o
 .debug_aranges
                0x00000000000008a0       0x58 .build/obj_cool836A_verB_RED_default/common/avr/suspend.o
 .debug_aranges
                0x00000000000008f8       0x50 .build/obj_cool836A_verB_RED_default/common/avr/timer.o
 .debug_aranges
                0x0000000000000948       0x28 .build/obj_cool836A_verB_RED_default/common/avr/bootloader.o
 .debug_aranges
                0x0000000000000970       0x28 .build/obj_cool836A_verB_RED_default/common/bootmagic_lite.o
 .debug_aranges
                0x0000000000000998       0x20 .build/obj_cool836A_verB_RED_default/common/magic.o
 .debug_aranges
                0x00000000000009b8       0x50 .build/obj_cool836A_verB_RED_default/common/mousekey.o
 .debug_aranges
                0x0000000000000a08       0x88 .build/obj_cool836A_verB_RED_default/lufa.o
 .debug_aranges
                0x0000000000000a90       0x20 .build/obj_cool836A_verB_RED_default/usb_descriptor.o
 .debug_aranges
                0x0000000000000ab0       0x20 .build/obj_cool836A_verB_RED_default/lib/lufa/LUFA/Drivers/USB/Core/AVR8/Device_AVR8.o
 .debug_aranges
                0x0000000000000ad0       0xc8 .build/obj_cool836A_verB_RED_default/lib/lufa/LUFA/Drivers/USB/Core/AVR8/EndpointStream_AVR8.o
 .debug_aranges
                0x0000000000000b98       0x40 .build/obj_cool836A_verB_RED_default/lib/lufa/LUFA/Drivers/USB/Core/AVR8/Endpoint_AVR8.o
 .debug_aranges
                0x0000000000000bd8       0x30 .build/obj_cool836A_verB_RED_default/lib/lufa/LUFA/Drivers/USB/Core/AVR8/USBController_AVR8.o
 .debug_aranges
                0x0000000000000c08       0x38 .build/obj_cool836A_verB_RED_default/lib/lufa/LUFA/Drivers/USB/Core/AVR8/USBInterrupt_AVR8.o
 .debug_aranges
                0x0000000000000c40       0x20 .build/obj_cool836A_verB_RED_default/lib/lufa/LUFA/Drivers/USB/Core/DeviceStandardReq.o
 .debug_aranges
                0x0000000000000c60       0x30 .build/obj_cool836A_verB_RED_default/lib/lufa/LUFA/Drivers/USB/Core/Events.o
 .debug_aranges
                0x0000000000000c90       0x20 .build/obj_cool836A_verB_RED_default/lib/lufa/LUFA/Drivers/USB/Core/USBTask.o

.debug_pubnames
 *(.debug_pubnames)

.debug_info     0x0000000000000000    0x1609a
 *(.debug_info .gnu.linkonce.wi.*)
 .debug_info    0x0000000000000000      0x9f4 /usr/lib/gcc/avr/5.4.0/../../../avr/lib/avr5/crtatmega32u4.o
 .debug_info    0x00000000000009f4     0x1008 .build/obj_cool836A_verB_RED_default/keyboards/cool836A/keymaps/default/keymap.o
 .debug_info    0x00000000000019fc     0x22eb .build/obj_cool836A_verB_RED_default/quantum/quantum.o
 .debug_info    0x0000000000003ce7      0x2d1 .build/obj_cool836A_verB_RED_default/quantum/led.o
 .debug_info    0x0000000000003fb8     0x1a41 .build/obj_cool836A_verB_RED_default/quantum/keymap_common.o
 .debug_info    0x00000000000059f9      0x61f .build/obj_cool836A_verB_RED_default/quantum/keycode_config.o
 .debug_info    0x0000000000006018      0x483 .build/obj_cool836A_verB_RED_default/quantum/matrix_common.o
 .debug_info    0x000000000000649b      0x587 .build/obj_cool836A_verB_RED_default/quantum/matrix.o
 .debug_info    0x0000000000006a22      0x223 .build/obj_cool836A_verB_RED_default/quantum/debounce/sym_defer_g.o
 .debug_info    0x0000000000006c45     0x1241 .build/obj_cool836A_verB_RED_default/quantum/process_keycode/process_space_cadet.o
 .debug_info    0x0000000000007e86      0xe1d .build/obj_cool836A_verB_RED_default/quantum/process_keycode/process_magic.o
 .debug_info    0x0000000000008ca3     0x11eb .build/obj_cool836A_verB_RED_default/quantum/process_keycode/process_grave_esc.o
 .debug_info    0x0000000000009e8e      0x540 .build/obj_cool836A_verB_RED_default/common/host.o
 .debug_info    0x000000000000a3ce      0x500 .build/obj_cool836A_verB_RED_default/common/keyboard.o
 .debug_info    0x000000000000a8ce     0x1fc2 .build/obj_cool836A_verB_RED_default/common/action.o
 .debug_info    0x000000000000c890      0xe14 .build/obj_cool836A_verB_RED_default/common/action_tapping.o
 .debug_info    0x000000000000d6a4      0xb3a .build/obj_cool836A_verB_RED_default/common/action_layer.o
 .debug_info    0x000000000000e1de      0x8bd .build/obj_cool836A_verB_RED_default/common/action_util.o
 .debug_info    0x000000000000ea9b       0xfc .build/obj_cool836A_verB_RED_default/common/debug.o
 .debug_info    0x000000000000eb97      0x90d .build/obj_cool836A_verB_RED_default/common/eeconfig.o
 .debug_info    0x000000000000f4a4      0x773 .build/obj_cool836A_verB_RED_default/common/report.o
 .debug_info    0x000000000000fc17      0x350 .build/obj_cool836A_verB_RED_default/common/avr/suspend.o
 .debug_info    0x000000000000ff67      0x3ab .build/obj_cool836A_verB_RED_default/common/avr/timer.o
 .debug_info    0x0000000000010312      0x1ee .build/obj_cool836A_verB_RED_default/common/avr/bootloader.o
 .debug_info    0x0000000000010500      0x24d .build/obj_cool836A_verB_RED_default/common/bootmagic_lite.o
 .debug_info    0x000000000001074d      0x2e6 .build/obj_cool836A_verB_RED_default/common/magic.o
 .debug_info    0x0000000000010a33      0x597 .build/obj_cool836A_verB_RED_default/common/mousekey.o
 .debug_info    0x0000000000010fca     0x1030 .build/obj_cool836A_verB_RED_default/lufa.o
 .debug_info    0x0000000000011ffa      0x799 .build/obj_cool836A_verB_RED_default/usb_descriptor.o
 .debug_info    0x0000000000012793       0xd2 .build/obj_cool836A_verB_RED_default/lib/lufa/LUFA/Drivers/USB/Core/AVR8/Device_AVR8.o
 .debug_info    0x0000000000012865     0x17b6 .build/obj_cool836A_verB_RED_default/lib/lufa/LUFA/Drivers/USB/Core/AVR8/EndpointStream_AVR8.o
 .debug_info    0x000000000001401b      0x620 .build/obj_cool836A_verB_RED_default/lib/lufa/LUFA/Drivers/USB/Core/AVR8/Endpoint_AVR8.o
 .debug_info    0x000000000001463b      0x4e7 .build/obj_cool836A_verB_RED_default/lib/lufa/LUFA/Drivers/USB/Core/AVR8/USBController_AVR8.o
 .debug_info    0x0000000000014b22      0x7e7 .build/obj_cool836A_verB_RED_default/lib/lufa/LUFA/Drivers/USB/Core/AVR8/USBInterrupt_AVR8.o
 .debug_info    0x0000000000015309      0xa41 .build/obj_cool836A_verB_RED_default/lib/lufa/LUFA/Drivers/USB/Core/DeviceStandardReq.o
 .debug_info    0x0000000000015d4a       0xde .build/obj_cool836A_verB_RED_default/lib/lufa/LUFA/Drivers/USB/Core/Events.o
 .debug_info    0x0000000000015e28      0x272 .build/obj_cool836A_verB_RED_default/lib/lufa/LUFA/Drivers/USB/Core/USBTask.o

.debug_abbrev   0x0000000000000000     0x4bae
 *(.debug_abbrev)
 .debug_abbrev  0x0000000000000000      0x96a /usr/lib/gcc/avr/5.4.0/../../../avr/lib/avr5/crtatmega32u4.o
 .debug_abbrev  0x000000000000096a       0xd7 .build/obj_cool836A_verB_RED_default/keyboards/cool836A/keymaps/default/keymap.o
 .debug_abbrev  0x0000000000000a41      0x3ad .build/obj_cool836A_verB_RED_default/quantum/quantum.o
 .debug_abbrev  0x0000000000000dee      0x18a .build/obj_cool836A_verB_RED_default/quantum/led.o
 .debug_abbrev  0x0000000000000f78      0x276 .build/obj_cool836A_verB_RED_default/quantum/keymap_common.o
 .debug_abbrev  0x00000000000011ee       0xe1 .build/obj_cool836A_verB_RED_default/quantum/keycode_config.o
 .debug_abbrev  0x00000000000012cf      0x241 .build/obj_cool836A_verB_RED_default/quantum/matrix_common.o
 .debug_abbrev  0x0000000000001510      0x25a .build/obj_cool836A_verB_RED_default/quantum/matrix.o
 .debug_abbrev  0x000000000000176a      0x163 .build/obj_cool836A_verB_RED_default/quantum/debounce/sym_defer_g.o
 .debug_abbrev  0x00000000000018cd      0x19f .build/obj_cool836A_verB_RED_default/quantum/process_keycode/process_space_cadet.o
 .debug_abbrev  0x0000000000001a6c      0x131 .build/obj_cool836A_verB_RED_default/quantum/process_keycode/process_magic.o
 .debug_abbrev  0x0000000000001b9d      0x1ab .build/obj_cool836A_verB_RED_default/quantum/process_keycode/process_grave_esc.o
 .debug_abbrev  0x0000000000001d48      0x1a3 .build/obj_cool836A_verB_RED_default/common/host.o
 .debug_abbrev  0x0000000000001eeb      0x261 .build/obj_cool836A_verB_RED_default/common/keyboard.o
 .debug_abbrev  0x000000000000214c      0x3a4 .build/obj_cool836A_verB_RED_default/common/action.o
 .debug_abbrev  0x00000000000024f0      0x2df .build/obj_cool836A_verB_RED_default/common/action_tapping.o
 .debug_abbrev  0x00000000000027cf      0x297 .build/obj_cool836A_verB_RED_default/common/action_layer.o
 .debug_abbrev  0x0000000000002a66      0x26a .build/obj_cool836A_verB_RED_default/common/action_util.o
 .debug_abbrev  0x0000000000002cd0       0x87 .build/obj_cool836A_verB_RED_default/common/debug.o
 .debug_abbrev  0x0000000000002d57      0x117 .build/obj_cool836A_verB_RED_default/common/eeconfig.o
 .debug_abbrev  0x0000000000002e6e      0x18c .build/obj_cool836A_verB_RED_default/common/report.o
 .debug_abbrev  0x0000000000002ffa      0x1ee .build/obj_cool836A_verB_RED_default/common/avr/suspend.o
 .debug_abbrev  0x00000000000031e8      0x175 .build/obj_cool836A_verB_RED_default/common/avr/timer.o
 .debug_abbrev  0x000000000000335d      0x174 .build/obj_cool836A_verB_RED_default/common/avr/bootloader.o
 .debug_abbrev  0x00000000000034d1      0x177 .build/obj_cool836A_verB_RED_default/common/bootmagic_lite.o
 .debug_abbrev  0x0000000000003648       0xf2 .build/obj_cool836A_verB_RED_default/common/magic.o
 .debug_abbrev  0x000000000000373a      0x21d .build/obj_cool836A_verB_RED_default/common/mousekey.o
 .debug_abbrev  0x0000000000003957      0x3ff .build/obj_cool836A_verB_RED_default/lufa.o
 .debug_abbrev  0x0000000000003d56      0x184 .build/obj_cool836A_verB_RED_default/usb_descriptor.o
 .debug_abbrev  0x0000000000003eda       0x80 .build/obj_cool836A_verB_RED_default/lib/lufa/LUFA/Drivers/USB/Core/AVR8/Device_AVR8.o
 .debug_abbrev  0x0000000000003f5a      0x1ea .build/obj_cool836A_verB_RED_default/lib/lufa/LUFA/Drivers/USB/Core/AVR8/EndpointStream_AVR8.o
 .debug_abbrev  0x0000000000004144      0x226 .build/obj_cool836A_verB_RED_default/lib/lufa/LUFA/Drivers/USB/Core/AVR8/Endpoint_AVR8.o
 .debug_abbrev  0x000000000000436a      0x191 .build/obj_cool836A_verB_RED_default/lib/lufa/LUFA/Drivers/USB/Core/AVR8/USBController_AVR8.o
 .debug_abbrev  0x00000000000044fb      0x213 .build/obj_cool836A_verB_RED_default/lib/lufa/LUFA/Drivers/USB/Core/AVR8/USBInterrupt_AVR8.o
 .debug_abbrev  0x000000000000470e      0x29c .build/obj_cool836A_verB_RED_default/lib/lufa/LUFA/Drivers/USB/Core/DeviceStandardReq.o
 .debug_abbrev  0x00000000000049aa       0x99 .build/obj_cool836A_verB_RED_default/lib/lufa/LUFA/Drivers/USB/Core/Events.o
 .debug_abbrev  0x0000000000004a43      0x16b .build/obj_cool836A_verB_RED_default/lib/lufa/LUFA/Drivers/USB/Core/USBTask.o

.debug_line     0x0000000000000000     0x7b10
 *(.debug_line .debug_line.* .debug_line_end)
 .debug_line    0x0000000000000000       0x1a /usr/lib/gcc/avr/5.4.0/../../../avr/lib/avr5/crtatmega32u4.o
 .debug_line    0x000000000000001a       0xd3 .build/obj_cool836A_verB_RED_default/keyboards/cool836A/keymaps/default/keymap.o
 .debug_line    0x00000000000000ed      0x947 .build/obj_cool836A_verB_RED_default/quantum/quantum.o
 .debug_line    0x0000000000000a34      0x110 .build/obj_cool836A_verB_RED_default/quantum/led.o
 .debug_line    0x0000000000000b44      0x263 .build/obj_cool836A_verB_RED_default/quantum/keymap_common.o
 .debug_line    0x0000000000000da7      0x235 .build/obj_cool836A_verB_RED_default/quantum/keycode_config.o
 .debug_line    0x0000000000000fdc      0x257 .build/obj_cool836A_verB_RED_default/quantum/matrix_common.o
 .debug_line    0x0000000000001233      0x210 .build/obj_cool836A_verB_RED_default/quantum/matrix.o
 .debug_line    0x0000000000001443      0x12f .build/obj_cool836A_verB_RED_default/quantum/debounce/sym_defer_g.o
 .debug_line    0x0000000000001572      0x1fb .build/obj_cool836A_verB_RED_default/quantum/process_keycode/process_space_cadet.o
 .debug_line    0x000000000000176d      0x24b .build/obj_cool836A_verB_RED_default/quantum/process_keycode/process_magic.o
 .debug_line    0x00000000000019b8      0x14a .build/obj_cool836A_verB_RED_default/quantum/process_keycode/process_grave_esc.o
 .debug_line    0x0000000000001b02      0x1c1 .build/obj_cool836A_verB_RED_default/common/host.o
 .debug_line    0x0000000000001cc3      0x26b .build/obj_cool836A_verB_RED_default/common/keyboard.o
 .debug_line    0x0000000000001f2e      0xa14 .build/obj_cool836A_verB_RED_default/common/action.o
 .debug_line    0x0000000000002942      0x511 .build/obj_cool836A_verB_RED_default/common/action_tapping.o
 .debug_line    0x0000000000002e53      0x396 .build/obj_cool836A_verB_RED_default/common/action_layer.o
 .debug_line    0x00000000000031e9      0x504 .build/obj_cool836A_verB_RED_default/common/action_util.o
 .debug_line    0x00000000000036ed       0x61 .build/obj_cool836A_verB_RED_default/common/debug.o
 .debug_line    0x000000000000374e      0x35b .build/obj_cool836A_verB_RED_default/common/eeconfig.o
 .debug_line    0x0000000000003aa9      0x1c4 .build/obj_cool836A_verB_RED_default/common/report.o
 .debug_line    0x0000000000003c6d      0x282 .build/obj_cool836A_verB_RED_default/common/avr/suspend.o
 .debug_line    0x0000000000003eef      0x1f0 .build/obj_cool836A_verB_RED_default/common/avr/timer.o
 .debug_line    0x00000000000040df      0x158 .build/obj_cool836A_verB_RED_default/common/avr/bootloader.o
 .debug_line    0x0000000000004237      0x119 .build/obj_cool836A_verB_RED_default/common/bootmagic_lite.o
 .debug_line    0x0000000000004350       0xd7 .build/obj_cool836A_verB_RED_default/common/magic.o
 .debug_line    0x0000000000004427      0x622 .build/obj_cool836A_verB_RED_default/common/mousekey.o
 .debug_line    0x0000000000004a49      0x70e .build/obj_cool836A_verB_RED_default/lufa.o
 .debug_line    0x0000000000005157      0x22f .build/obj_cool836A_verB_RED_default/usb_descriptor.o
 .debug_line    0x0000000000005386      0x10a .build/obj_cool836A_verB_RED_default/lib/lufa/LUFA/Drivers/USB/Core/AVR8/Device_AVR8.o
 .debug_line    0x0000000000005490     0x13cb .build/obj_cool836A_verB_RED_default/lib/lufa/LUFA/Drivers/USB/Core/AVR8/EndpointStream_AVR8.o
 .debug_line    0x000000000000685b      0x475 .build/obj_cool836A_verB_RED_default/lib/lufa/LUFA/Drivers/USB/Core/AVR8/Endpoint_AVR8.o
 .debug_line    0x0000000000006cd0      0x2da .build/obj_cool836A_verB_RED_default/lib/lufa/LUFA/Drivers/USB/Core/AVR8/USBController_AVR8.o
 .debug_line    0x0000000000006faa      0x50a .build/obj_cool836A_verB_RED_default/lib/lufa/LUFA/Drivers/USB/Core/AVR8/USBInterrupt_AVR8.o
 .debug_line    0x00000000000074b4      0x469 .build/obj_cool836A_verB_RED_default/lib/lufa/LUFA/Drivers/USB/Core/DeviceStandardReq.o
 .debug_line    0x000000000000791d       0x96 .build/obj_cool836A_verB_RED_default/lib/lufa/LUFA/Drivers/USB/Core/Events.o
 .debug_line    0x00000000000079b3      0x15d .build/obj_cool836A_verB_RED_default/lib/lufa/LUFA/Drivers/USB/Core/USBTask.o

.debug_frame    0x0000000000000000     0x1f48
 *(.debug_frame)
 .debug_frame   0x0000000000000000      0x378 .build/obj_cool836A_verB_RED_default/quantum/quantum.o
 .debug_frame   0x0000000000000378       0x7c .build/obj_cool836A_verB_RED_default/quantum/led.o
 .debug_frame   0x00000000000003f4       0x70 .build/obj_cool836A_verB_RED_default/quantum/keymap_common.o
 .debug_frame   0x0000000000000464       0x34 .build/obj_cool836A_verB_RED_default/quantum/keycode_config.o
 .debug_frame   0x0000000000000498      0x140 .build/obj_cool836A_verB_RED_default/quantum/matrix_common.o
 .debug_frame   0x00000000000005d8       0x98 .build/obj_cool836A_verB_RED_default/quantum/matrix.o
 .debug_frame   0x0000000000000670       0x64 .build/obj_cool836A_verB_RED_default/quantum/debounce/sym_defer_g.o
 .debug_frame   0x00000000000006d4       0x54 .build/obj_cool836A_verB_RED_default/quantum/process_keycode/process_space_cadet.o
 .debug_frame   0x0000000000000728       0x30 .build/obj_cool836A_verB_RED_default/quantum/process_keycode/process_magic.o
 .debug_frame   0x0000000000000758       0x30 .build/obj_cool836A_verB_RED_default/quantum/process_keycode/process_grave_esc.o
 .debug_frame   0x0000000000000788       0xb4 .build/obj_cool836A_verB_RED_default/common/host.o
 .debug_frame   0x000000000000083c      0x148 .build/obj_cool836A_verB_RED_default/common/keyboard.o
 .debug_frame   0x0000000000000984      0x224 .build/obj_cool836A_verB_RED_default/common/action.o
 .debug_frame   0x0000000000000ba8      0x100 .build/obj_cool836A_verB_RED_default/common/action_tapping.o
 .debug_frame   0x0000000000000ca8      0x294 .build/obj_cool836A_verB_RED_default/common/action_layer.o
 .debug_frame   0x0000000000000f3c      0x2a4 .build/obj_cool836A_verB_RED_default/common/action_util.o
 .debug_frame   0x00000000000011e0      0x1c4 .build/obj_cool836A_verB_RED_default/common/eeconfig.o
 .debug_frame   0x00000000000013a4       0x94 .build/obj_cool836A_verB_RED_default/common/report.o
 .debug_frame   0x0000000000001438       0xf0 .build/obj_cool836A_verB_RED_default/common/avr/suspend.o
 .debug_frame   0x0000000000001528       0xc0 .build/obj_cool836A_verB_RED_default/common/avr/timer.o
 .debug_frame   0x00000000000015e8       0x34 .build/obj_cool836A_verB_RED_default/common/avr/bootloader.o
 .debug_frame   0x000000000000161c       0x34 .build/obj_cool836A_verB_RED_default/common/bootmagic_lite.o
 .debug_frame   0x0000000000001650       0x24 .build/obj_cool836A_verB_RED_default/common/magic.o
 .debug_frame   0x0000000000001674       0xb0 .build/obj_cool836A_verB_RED_default/common/mousekey.o
 .debug_frame   0x0000000000001724      0x124 .build/obj_cool836A_verB_RED_default/lufa.o
 .debug_frame   0x0000000000001848       0x24 .build/obj_cool836A_verB_RED_default/usb_descriptor.o
 .debug_frame   0x000000000000186c       0x24 .build/obj_cool836A_verB_RED_default/lib/lufa/LUFA/Drivers/USB/Core/AVR8/Device_AVR8.o
 .debug_frame   0x0000000000001890      0x42c .build/obj_cool836A_verB_RED_default/lib/lufa/LUFA/Drivers/USB/Core/AVR8/EndpointStream_AVR8.o
 .debug_frame   0x0000000000001cbc       0x7c .build/obj_cool836A_verB_RED_default/lib/lufa/LUFA/Drivers/USB/Core/AVR8/Endpoint_AVR8.o
 .debug_frame   0x0000000000001d38       0x5c .build/obj_cool836A_verB_RED_default/lib/lufa/LUFA/Drivers/USB/Core/AVR8/USBController_AVR8.o
 .debug_frame   0x0000000000001d94      0x108 .build/obj_cool836A_verB_RED_default/lib/lufa/LUFA/Drivers/USB/Core/AVR8/USBInterrupt_AVR8.o
 .debug_frame   0x0000000000001e9c       0x3c .build/obj_cool836A_verB_RED_default/lib/lufa/LUFA/Drivers/USB/Core/DeviceStandardReq.o
 .debug_frame   0x0000000000001ed8       0x44 .build/obj_cool836A_verB_RED_default/lib/lufa/LUFA/Drivers/USB/Core/Events.o
 .debug_frame   0x0000000000001f1c       0x2c .build/obj_cool836A_verB_RED_default/lib/lufa/LUFA/Drivers/USB/Core/USBTask.o

.debug_str      0x0000000000000000     0x5b48
 *(.debug_str)
 .debug_str     0x0000000000000000      0x371 /usr/lib/gcc/avr/5.4.0/../../../avr/lib/avr5/crtatmega32u4.o
 .debug_str     0x0000000000000371     0x179b .build/obj_cool836A_verB_RED_default/keyboards/cool836A/keymaps/default/keymap.o
                                       0x1802 (緩和前のサイズ)
 .debug_str     0x0000000000001b0c      0x4b8 .build/obj_cool836A_verB_RED_default/quantum/quantum.o
                                       0x1d21 (緩和前のサイズ)
 .debug_str     0x0000000000001fc4       0x95 .build/obj_cool836A_verB_RED_default/quantum/led.o
                                        0x269 (緩和前のサイズ)
 .debug_str     0x0000000000002059      0x874 .build/obj_cool836A_verB_RED_default/quantum/keymap_common.o
                                       0x2133 (緩和前のサイズ)
 .debug_str     0x00000000000028cd       0xd1 .build/obj_cool836A_verB_RED_default/quantum/keycode_config.o
                                        0x895 (緩和前のサイズ)
 .debug_str     0x000000000000299e      0x143 .build/obj_cool836A_verB_RED_default/quantum/matrix_common.o
                                        0x36f (緩和前のサイズ)
 .debug_str     0x0000000000002ae1       0xf2 .build/obj_cool836A_verB_RED_default/quantum/matrix.o
                                        0x36e (緩和前のサイズ)
 .debug_str     0x0000000000002bd3       0x63 .build/obj_cool836A_verB_RED_default/quantum/debounce/sym_defer_g.o
                                        0x272 (緩和前のサイズ)
 .debug_str     0x0000000000002c36       0x7d .build/obj_cool836A_verB_RED_default/quantum/process_keycode/process_space_cadet.o
                                       0x18b6 (緩和前のサイズ)
 .debug_str     0x0000000000002cb3       0x6f .build/obj_cool836A_verB_RED_default/quantum/process_keycode/process_magic.o
                                       0x137d (緩和前のサイズ)
 .debug_str     0x0000000000002d22       0x96 .build/obj_cool836A_verB_RED_default/quantum/process_keycode/process_grave_esc.o
                                       0x18a5 (緩和前のサイズ)
 .debug_str     0x0000000000002db8      0x1c9 .build/obj_cool836A_verB_RED_default/common/host.o
                                        0x42e (緩和前のサイズ)
 .debug_str     0x0000000000002f81      0x13e .build/obj_cool836A_verB_RED_default/common/keyboard.o
                                        0x3b1 (緩和前のサイズ)
 .debug_str     0x00000000000030bf      0x428 .build/obj_cool836A_verB_RED_default/common/action.o
                                       0x1686 (緩和前のサイズ)
 .debug_str     0x00000000000034e7       0xf7 .build/obj_cool836A_verB_RED_default/common/action_tapping.o
                                        0xb32 (緩和前のサイズ)
 .debug_str     0x00000000000035de       0xdf .build/obj_cool836A_verB_RED_default/common/action_layer.o
                                        0x53e (緩和前のサイズ)
 .debug_str     0x00000000000036bd      0x1db .build/obj_cool836A_verB_RED_default/common/action_util.o
                                        0x5d6 (緩和前のサイズ)
 .debug_str     0x0000000000003898       0x18 .build/obj_cool836A_verB_RED_default/common/debug.o
                                        0x1e6 (緩和前のサイズ)
 .debug_str     0x00000000000038b0      0x22c .build/obj_cool836A_verB_RED_default/common/eeconfig.o
                                        0x473 (緩和前のサイズ)
 .debug_str     0x0000000000003adc       0x47 .build/obj_cool836A_verB_RED_default/common/report.o
                                        0x830 (緩和前のサイズ)
 .debug_str     0x0000000000003b23      0x1a4 .build/obj_cool836A_verB_RED_default/common/avr/suspend.o
                                        0x3a5 (緩和前のサイズ)
 .debug_str     0x0000000000003cc7       0x66 .build/obj_cool836A_verB_RED_default/common/avr/timer.o
                                        0x251 (緩和前のサイズ)
 .debug_str     0x0000000000003d2d       0x5b .build/obj_cool836A_verB_RED_default/common/avr/bootloader.o
                                        0x284 (緩和前のサイズ)
 .debug_str     0x0000000000003d88       0x3d .build/obj_cool836A_verB_RED_default/common/bootmagic_lite.o
                                        0x29d (緩和前のサイズ)
 .debug_str     0x0000000000003dc5       0x18 .build/obj_cool836A_verB_RED_default/common/magic.o
                                        0x373 (緩和前のサイズ)
 .debug_str     0x0000000000003ddd      0x161 .build/obj_cool836A_verB_RED_default/common/mousekey.o
                                        0x4b0 (緩和前のサイズ)
 .debug_str     0x0000000000003f3e      0x644 .build/obj_cool836A_verB_RED_default/lufa.o
                                        0xb09 (緩和前のサイズ)
 .debug_str     0x0000000000004582      0x6a9 .build/obj_cool836A_verB_RED_default/usb_descriptor.o
                                        0x9e5 (緩和前のサイズ)
 .debug_str     0x0000000000004c2b       0x5e .build/obj_cool836A_verB_RED_default/lib/lufa/LUFA/Drivers/USB/Core/AVR8/Device_AVR8.o
                                        0x20f (緩和前のサイズ)
 .debug_str     0x0000000000004c89      0x4a3 .build/obj_cool836A_verB_RED_default/lib/lufa/LUFA/Drivers/USB/Core/AVR8/EndpointStream_AVR8.o
                                        0x871 (緩和前のサイズ)
 .debug_str     0x000000000000512c      0x254 .build/obj_cool836A_verB_RED_default/lib/lufa/LUFA/Drivers/USB/Core/AVR8/Endpoint_AVR8.o
                                        0x631 (緩和前のサイズ)
 .debug_str     0x0000000000005380      0x1c0 .build/obj_cool836A_verB_RED_default/lib/lufa/LUFA/Drivers/USB/Core/AVR8/USBController_AVR8.o
                                        0x570 (緩和前のサイズ)
 .debug_str     0x0000000000005540      0x15d .build/obj_cool836A_verB_RED_default/lib/lufa/LUFA/Drivers/USB/Core/AVR8/USBInterrupt_AVR8.o
                                        0x5ef (緩和前のサイズ)
 .debug_str     0x000000000000569d      0x40d .build/obj_cool836A_verB_RED_default/lib/lufa/LUFA/Drivers/USB/Core/DeviceStandardReq.o
                                        0x9c0 (緩和前のサイズ)
 .debug_str     0x0000000000005aaa       0x59 .build/obj_cool836A_verB_RED_default/lib/lufa/LUFA/Drivers/USB/Core/Events.o
                                        0x1df (緩和前のサイズ)
 .debug_str     0x0000000000005b03       0x45 .build/obj_cool836A_verB_RED_default/lib/lufa/LUFA/Drivers/USB/Core/USBTask.o
                                        0x396 (緩和前のサイズ)

.debug_loc      0x0000000000000000     0x89be
 *(.debug_loc)
 .debug_loc     0x0000000000000000     0x1590 .build/obj_cool836A_verB_RED_default/quantum/quantum.o
 .debug_loc     0x0000000000001590       0x95 .build/obj_cool836A_verB_RED_default/quantum/led.o
 .debug_loc     0x0000000000001625      0x44f .build/obj_cool836A_verB_RED_default/quantum/keymap_common.o
 .debug_loc     0x0000000000001a74      0x16d .build/obj_cool836A_verB_RED_default/quantum/keycode_config.o
 .debug_loc     0x0000000000001be1      0x227 .build/obj_cool836A_verB_RED_default/quantum/matrix_common.o
 .debug_loc     0x0000000000001e08      0x343 .build/obj_cool836A_verB_RED_default/quantum/matrix.o
 .debug_loc     0x000000000000214b      0x14e .build/obj_cool836A_verB_RED_default/quantum/debounce/sym_defer_g.o
 .debug_loc     0x0000000000002299      0x49a .build/obj_cool836A_verB_RED_default/quantum/process_keycode/process_space_cadet.o
 .debug_loc     0x0000000000002733       0xa9 .build/obj_cool836A_verB_RED_default/quantum/process_keycode/process_magic.o
 .debug_loc     0x00000000000027dc      0x14b .build/obj_cool836A_verB_RED_default/quantum/process_keycode/process_grave_esc.o
 .debug_loc     0x0000000000002927       0xd8 .build/obj_cool836A_verB_RED_default/common/host.o
 .debug_loc     0x00000000000029ff      0x1cf .build/obj_cool836A_verB_RED_default/common/keyboard.o
 .debug_loc     0x0000000000002bce      0xcac .build/obj_cool836A_verB_RED_default/common/action.o
 .debug_loc     0x000000000000387a      0x628 .build/obj_cool836A_verB_RED_default/common/action_tapping.o
 .debug_loc     0x0000000000003ea2      0x83f .build/obj_cool836A_verB_RED_default/common/action_layer.o
 .debug_loc     0x00000000000046e1      0x2f8 .build/obj_cool836A_verB_RED_default/common/action_util.o
 .debug_loc     0x00000000000049d9      0x1ca .build/obj_cool836A_verB_RED_default/common/eeconfig.o
 .debug_loc     0x0000000000004ba3      0x304 .build/obj_cool836A_verB_RED_default/common/report.o
 .debug_loc     0x0000000000004ea7       0xed .build/obj_cool836A_verB_RED_default/common/avr/suspend.o
 .debug_loc     0x0000000000004f94      0x21d .build/obj_cool836A_verB_RED_default/common/avr/timer.o
 .debug_loc     0x00000000000051b1       0x48 .build/obj_cool836A_verB_RED_default/common/avr/bootloader.o
 .debug_loc     0x00000000000051f9       0x48 .build/obj_cool836A_verB_RED_default/common/bootmagic_lite.o
 .debug_loc     0x0000000000005241       0x2a .build/obj_cool836A_verB_RED_default/common/magic.o
 .debug_loc     0x000000000000526b      0x4b8 .build/obj_cool836A_verB_RED_default/common/mousekey.o
 .debug_loc     0x0000000000005723      0x4ba .build/obj_cool836A_verB_RED_default/lufa.o
 .debug_loc     0x0000000000005bdd      0x2e7 .build/obj_cool836A_verB_RED_default/usb_descriptor.o
 .debug_loc     0x0000000000005ec4     0x1f65 .build/obj_cool836A_verB_RED_default/lib/lufa/LUFA/Drivers/USB/Core/AVR8/EndpointStream_AVR8.o
 .debug_loc     0x0000000000007e29      0x38d .build/obj_cool836A_verB_RED_default/lib/lufa/LUFA/Drivers/USB/Core/AVR8/Endpoint_AVR8.o
 .debug_loc     0x00000000000081b6       0xd5 .build/obj_cool836A_verB_RED_default/lib/lufa/LUFA/Drivers/USB/Core/AVR8/USBController_AVR8.o
 .debug_loc     0x000000000000828b      0x3f4 .build/obj_cool836A_verB_RED_default/lib/lufa/LUFA/Drivers/USB/Core/AVR8/USBInterrupt_AVR8.o
 .debug_loc     0x000000000000867f      0x2f6 .build/obj_cool836A_verB_RED_default/lib/lufa/LUFA/Drivers/USB/Core/DeviceStandardReq.o
 .debug_loc     0x0000000000008975       0x49 .build/obj_cool836A_verB_RED_default/lib/lufa/LUFA/Drivers/USB/Core/USBTask.o

.debug_macinfo
 *(.debug_macinfo)

.debug_weaknames
 *(.debug_weaknames)

.debug_funcnames
 *(.debug_funcnames)

.debug_typenames
 *(.debug_typenames)

.debug_varnames
 *(.debug_varnames)

.debug_pubtypes
 *(.debug_pubtypes)

.debug_ranges   0x0000000000000000      0xd08
 *(.debug_ranges)
 .debug_ranges  0x0000000000000000      0x138 .build/obj_cool836A_verB_RED_default/quantum/quantum.o
 .debug_ranges  0x0000000000000138       0x38 .build/obj_cool836A_verB_RED_default/quantum/led.o
 .debug_ranges  0x0000000000000170       0x30 .build/obj_cool836A_verB_RED_default/quantum/keymap_common.o
 .debug_ranges  0x00000000000001a0       0x18 .build/obj_cool836A_verB_RED_default/quantum/keycode_config.o
 .debug_ranges  0x00000000000001b8       0x78 .build/obj_cool836A_verB_RED_default/quantum/matrix_common.o
 .debug_ranges  0x0000000000000230       0x68 .build/obj_cool836A_verB_RED_default/quantum/matrix.o
 .debug_ranges  0x0000000000000298       0x20 .build/obj_cool836A_verB_RED_default/quantum/debounce/sym_defer_g.o
 .debug_ranges  0x00000000000002b8       0x18 .build/obj_cool836A_verB_RED_default/quantum/process_keycode/process_space_cadet.o
 .debug_ranges  0x00000000000002d0       0x10 .build/obj_cool836A_verB_RED_default/quantum/process_keycode/process_magic.o
 .debug_ranges  0x00000000000002e0       0x10 .build/obj_cool836A_verB_RED_default/quantum/process_keycode/process_grave_esc.o
 .debug_ranges  0x00000000000002f0       0x58 .build/obj_cool836A_verB_RED_default/common/host.o
 .debug_ranges  0x0000000000000348       0x70 .build/obj_cool836A_verB_RED_default/common/keyboard.o
 .debug_ranges  0x00000000000003b8       0xc0 .build/obj_cool836A_verB_RED_default/common/action.o
 .debug_ranges  0x0000000000000478       0x68 .build/obj_cool836A_verB_RED_default/common/action_tapping.o
 .debug_ranges  0x00000000000004e0       0xe8 .build/obj_cool836A_verB_RED_default/common/action_layer.o
 .debug_ranges  0x00000000000005c8      0x140 .build/obj_cool836A_verB_RED_default/common/action_util.o
 .debug_ranges  0x0000000000000708       0xd8 .build/obj_cool836A_verB_RED_default/common/eeconfig.o
 .debug_ranges  0x00000000000007e0       0x60 .build/obj_cool836A_verB_RED_default/common/report.o
 .debug_ranges  0x0000000000000840       0x48 .build/obj_cool836A_verB_RED_default/common/avr/suspend.o
 .debug_ranges  0x0000000000000888       0x40 .build/obj_cool836A_verB_RED_default/common/avr/timer.o
 .debug_ranges  0x00000000000008c8       0x18 .build/obj_cool836A_verB_RED_default/common/avr/bootloader.o
 .debug_ranges  0x00000000000008e0       0x18 .build/obj_cool836A_verB_RED_default/common/bootmagic_lite.o
 .debug_ranges  0x00000000000008f8       0x10 .build/obj_cool836A_verB_RED_default/common/magic.o
 .debug_ranges  0x0000000000000908       0x40 .build/obj_cool836A_verB_RED_default/common/mousekey.o
 .debug_ranges  0x0000000000000948       0x78 .build/obj_cool836A_verB_RED_default/lufa.o
 .debug_ranges  0x00000000000009c0       0x28 .build/obj_cool836A_verB_RED_default/usb_descriptor.o
 .debug_ranges  0x00000000000009e8       0x10 .build/obj_cool836A_verB_RED_default/lib/lufa/LUFA/Drivers/USB/Core/AVR8/Device_AVR8.o
 .debug_ranges  0x00000000000009f8      0x1f8 .build/obj_cool836A_verB_RED_default/lib/lufa/LUFA/Drivers/USB/Core/AVR8/EndpointStream_AVR8.o
 .debug_ranges  0x0000000000000bf0       0x78 .build/obj_cool836A_verB_RED_default/lib/lufa/LUFA/Drivers/USB/Core/AVR8/Endpoint_AVR8.o
 .debug_ranges  0x0000000000000c68       0x20 .build/obj_cool836A_verB_RED_default/lib/lufa/LUFA/Drivers/USB/Core/AVR8/USBController_AVR8.o
 .debug_ranges  0x0000000000000c88       0x28 .build/obj_cool836A_verB_RED_default/lib/lufa/LUFA/Drivers/USB/Core/AVR8/USBInterrupt_AVR8.o
 .debug_ranges  0x0000000000000cb0       0x28 .build/obj_cool836A_verB_RED_default/lib/lufa/LUFA/Drivers/USB/Core/DeviceStandardReq.o
 .debug_ranges  0x0000000000000cd8       0x20 .build/obj_cool836A_verB_RED_default/lib/lufa/LUFA/Drivers/USB/Core/Events.o
 .debug_ranges  0x0000000000000cf8       0x10 .build/obj_cool836A_verB_RED_default/lib/lufa/LUFA/Drivers/USB/Core/USBTask.o

.debug_macro
 *(.debug_macro)
OUTPUT(.build/cool836A_verB_RED_default.elf elf32-avr)
LOAD linker stubs

相互参照テーブル

シンボル                                      ファイル
CALLBACK_HIDParser_FilterHIDReportItem            .build/obj_cool836A_verB_RED_default/lib/lufa/LUFA/Drivers/USB/Class/Common/HIDParser.o
CALLBACK_USB_GetDescriptor                        .build/obj_cool836A_verB_RED_default/lufa.o
                                                  .build/obj_cool836A_verB_RED_default/lib/lufa/LUFA/Drivers/USB/Core/DeviceStandardReq.o
ConfigurationDescriptor                           .build/obj_cool836A_verB_RED_default/usb_descriptor.o
DeviceDescriptor                                  .build/obj_cool836A_verB_RED_default/usb_descriptor.o
EVENT_USB_Device_ConfigurationChanged             .build/obj_cool836A_verB_RED_default/lufa.o
                                                  .build/obj_cool836A_verB_RED_default/lib/lufa/LUFA/Drivers/USB/Core/DeviceStandardReq.o
EVENT_USB_Device_Connect                          .build/obj_cool836A_verB_RED_default/lufa.o
                                                  .build/obj_cool836A_verB_RED_default/lib/lufa/LUFA/Drivers/USB/Core/AVR8/USBInterrupt_AVR8.o
EVENT_USB_Device_ControlRequest                   .build/obj_cool836A_verB_RED_default/lufa.o
                                                  .build/obj_cool836A_verB_RED_default/lib/lufa/LUFA/Drivers/USB/Core/DeviceStandardReq.o
EVENT_USB_Device_Disconnect                       .build/obj_cool836A_verB_RED_default/lufa.o
                                                  .build/obj_cool836A_verB_RED_default/lib/lufa/LUFA/Drivers/USB/Core/AVR8/USBInterrupt_AVR8.o
EVENT_USB_Device_Reset                            .build/obj_cool836A_verB_RED_default/lufa.o
                                                  .build/obj_cool836A_verB_RED_default/lib/lufa/LUFA/Drivers/USB/Core/AVR8/USBInterrupt_AVR8.o
EVENT_USB_Device_StartOfFrame                     .build/obj_cool836A_verB_RED_default/lib/lufa/LUFA/Drivers/USB/Core/Events.o
                                                  .build/obj_cool836A_verB_RED_default/lib/lufa/LUFA/Drivers/USB/Core/AVR8/USBInterrupt_AVR8.o
EVENT_USB_Device_Suspend                          .build/obj_cool836A_verB_RED_default/lufa.o
                                                  .build/obj_cool836A_verB_RED_default/lib/lufa/LUFA/Drivers/USB/Core/AVR8/USBInterrupt_AVR8.o
EVENT_USB_Device_WakeUp                           .build/obj_cool836A_verB_RED_default/lufa.o
                                                  .build/obj_cool836A_verB_RED_default/lib/lufa/LUFA/Drivers/USB/Core/AVR8/USBInterrupt_AVR8.o
Endpoint_ClearEndpoints                           .build/obj_cool836A_verB_RED_default/lib/lufa/LUFA/Drivers/USB/Core/AVR8/Endpoint_AVR8.o
Endpoint_ClearStatusStage                         .build/obj_cool836A_verB_RED_default/lib/lufa/LUFA/Drivers/USB/Core/AVR8/Endpoint_AVR8.o
                                                  .build/obj_cool836A_verB_RED_default/lib/lufa/LUFA/Drivers/USB/Core/DeviceStandardReq.o
                                                  .build/obj_cool836A_verB_RED_default/lufa.o
Endpoint_ConfigureEndpointTable                   .build/obj_cool836A_verB_RED_default/lib/lufa/LUFA/Drivers/USB/Core/AVR8/Endpoint_AVR8.o
Endpoint_ConfigureEndpoint_Prv                    .build/obj_cool836A_verB_RED_default/lib/lufa/LUFA/Drivers/USB/Core/AVR8/Endpoint_AVR8.o
                                                  .build/obj_cool836A_verB_RED_default/lib/lufa/LUFA/Drivers/USB/Core/AVR8/USBInterrupt_AVR8.o
                                                  .build/obj_cool836A_verB_RED_default/lib/lufa/LUFA/Drivers/USB/Core/AVR8/USBController_AVR8.o
                                                  .build/obj_cool836A_verB_RED_default/lufa.o
Endpoint_Discard_Stream                           .build/obj_cool836A_verB_RED_default/lib/lufa/LUFA/Drivers/USB/Core/AVR8/EndpointStream_AVR8.o
Endpoint_Null_Stream                              .build/obj_cool836A_verB_RED_default/lib/lufa/LUFA/Drivers/USB/Core/AVR8/EndpointStream_AVR8.o
Endpoint_Read_Control_EStream_BE                  .build/obj_cool836A_verB_RED_default/lib/lufa/LUFA/Drivers/USB/Core/AVR8/EndpointStream_AVR8.o
Endpoint_Read_Control_EStream_LE                  .build/obj_cool836A_verB_RED_default/lib/lufa/LUFA/Drivers/USB/Core/AVR8/EndpointStream_AVR8.o
Endpoint_Read_Control_Stream_BE                   .build/obj_cool836A_verB_RED_default/lib/lufa/LUFA/Drivers/USB/Core/AVR8/EndpointStream_AVR8.o
Endpoint_Read_Control_Stream_LE                   .build/obj_cool836A_verB_RED_default/lib/lufa/LUFA/Drivers/USB/Core/AVR8/EndpointStream_AVR8.o
Endpoint_Read_EStream_BE                          .build/obj_cool836A_verB_RED_default/lib/lufa/LUFA/Drivers/USB/Core/AVR8/EndpointStream_AVR8.o
Endpoint_Read_EStream_LE                          .build/obj_cool836A_verB_RED_default/lib/lufa/LUFA/Drivers/USB/Core/AVR8/EndpointStream_AVR8.o
Endpoint_Read_Stream_BE                           .build/obj_cool836A_verB_RED_default/lib/lufa/LUFA/Drivers/USB/Core/AVR8/EndpointStream_AVR8.o
Endpoint_Read_Stream_LE                           .build/obj_cool836A_verB_RED_default/lib/lufa/LUFA/Drivers/USB/Core/AVR8/EndpointStream_AVR8.o
Endpoint_WaitUntilReady                           .build/obj_cool836A_verB_RED_default/lib/lufa/LUFA/Drivers/USB/Core/AVR8/Endpoint_AVR8.o
                                                  .build/obj_cool836A_verB_RED_default/lib/lufa/LUFA/Drivers/USB/Core/AVR8/EndpointStream_AVR8.o
Endpoint_Write_Control_EStream_BE                 .build/obj_cool836A_verB_RED_default/lib/lufa/LUFA/Drivers/USB/Core/AVR8/EndpointStream_AVR8.o
Endpoint_Write_Control_EStream_LE                 .build/obj_cool836A_verB_RED_default/lib/lufa/LUFA/Drivers/USB/Core/AVR8/EndpointStream_AVR8.o
Endpoint_Write_Control_PStream_BE                 .build/obj_cool836A_verB_RED_default/lib/lufa/LUFA/Drivers/USB/Core/AVR8/EndpointStream_AVR8.o
Endpoint_Write_Control_PStream_LE                 .build/obj_cool836A_verB_RED_default/lib/lufa/LUFA/Drivers/USB/Core/AVR8/EndpointStream_AVR8.o
                                                  .build/obj_cool836A_verB_RED_default/lib/lufa/LUFA/Drivers/USB/Core/DeviceStandardReq.o
Endpoint_Write_Control_Stream_BE                  .build/obj_cool836A_verB_RED_default/lib/lufa/LUFA/Drivers/USB/Core/AVR8/EndpointStream_AVR8.o
Endpoint_Write_Control_Stream_LE                  .build/obj_cool836A_verB_RED_default/lib/lufa/LUFA/Drivers/USB/Core/AVR8/EndpointStream_AVR8.o
                                                  .build/obj_cool836A_verB_RED_default/lib/lufa/LUFA/Drivers/USB/Core/DeviceStandardReq.o
                                                  .build/obj_cool836A_verB_RED_default/lufa.o
Endpoint_Write_EStream_BE                         .build/obj_cool836A_verB_RED_default/lib/lufa/LUFA/Drivers/USB/Core/AVR8/EndpointStream_AVR8.o
Endpoint_Write_EStream_LE                         .build/obj_cool836A_verB_RED_default/lib/lufa/LUFA/Drivers/USB/Core/AVR8/EndpointStream_AVR8.o
Endpoint_Write_PStream_BE                         .build/obj_cool836A_verB_RED_default/lib/lufa/LUFA/Drivers/USB/Core/AVR8/EndpointStream_AVR8.o
Endpoint_Write_PStream_LE                         .build/obj_cool836A_verB_RED_default/lib/lufa/LUFA/Drivers/USB/Core/AVR8/EndpointStream_AVR8.o
Endpoint_Write_Stream_BE                          .build/obj_cool836A_verB_RED_default/lib/lufa/LUFA/Drivers/USB/Core/AVR8/EndpointStream_AVR8.o
Endpoint_Write_Stream_LE                          .build/obj_cool836A_verB_RED_default/lib/lufa/LUFA/Drivers/USB/Core/AVR8/EndpointStream_AVR8.o
                                                  .build/obj_cool836A_verB_RED_default/lufa.o
KeyboardReport                                    .build/obj_cool836A_verB_RED_default/usb_descriptor.o
LanguageString                                    .build/obj_cool836A_verB_RED_default/usb_descriptor.o
ManufacturerString                                .build/obj_cool836A_verB_RED_default/usb_descriptor.o
ProductString                                     .build/obj_cool836A_verB_RED_default/usb_descriptor.o
SharedReport                                      .build/obj_cool836A_verB_RED_default/usb_descriptor.o
USB_ControlRequest                                .build/obj_cool836A_verB_RED_default/lib/lufa/LUFA/Drivers/USB/Core/USBTask.o
                                                  .build/obj_cool836A_verB_RED_default/lib/lufa/LUFA/Drivers/USB/Core/DeviceStandardReq.o
                                                  .build/obj_cool836A_verB_RED_default/lib/lufa/LUFA/Drivers/USB/Core/AVR8/Endpoint_AVR8.o
                                                  .build/obj_cool836A_verB_RED_default/lib/lufa/LUFA/Drivers/USB/Core/AVR8/EndpointStream_AVR8.o
                                                  .build/obj_cool836A_verB_RED_default/lufa.o
USB_DeviceState                                   .build/obj_cool836A_verB_RED_default/lib/lufa/LUFA/Drivers/USB/Core/USBTask.o
                                                  .build/obj_cool836A_verB_RED_default/lib/lufa/LUFA/Drivers/USB/Core/DeviceStandardReq.o
                                                  .build/obj_cool836A_verB_RED_default/lib/lufa/LUFA/Drivers/USB/Core/AVR8/USBInterrupt_AVR8.o
                                                  .build/obj_cool836A_verB_RED_default/lib/lufa/LUFA/Drivers/USB/Core/AVR8/USBController_AVR8.o
                                                  .build/obj_cool836A_verB_RED_default/lib/lufa/LUFA/Drivers/USB/Core/AVR8/Endpoint_AVR8.o
                                                  .build/obj_cool836A_verB_RED_default/lib/lufa/LUFA/Drivers/USB/Core/AVR8/EndpointStream_AVR8.o
                                                  .build/obj_cool836A_verB_RED_default/lufa.o
                                                  .build/obj_cool836A_verB_RED_default/common/avr/suspend.o
USB_Device_ConfigurationNumber                    .build/obj_cool836A_verB_RED_default/lib/lufa/LUFA/Drivers/USB/Core/DeviceStandardReq.o
                                                  .build/obj_cool836A_verB_RED_default/lib/lufa/LUFA/Drivers/USB/Core/AVR8/USBInterrupt_AVR8.o
                                                  .build/obj_cool836A_verB_RED_default/lib/lufa/LUFA/Drivers/USB/Core/AVR8/USBController_AVR8.o
USB_Device_CurrentlySelfPowered                   .build/obj_cool836A_verB_RED_default/lib/lufa/LUFA/Drivers/USB/Core/DeviceStandardReq.o
                                                  .build/obj_cool836A_verB_RED_default/lib/lufa/LUFA/Drivers/USB/Core/AVR8/USBController_AVR8.o
USB_Device_ProcessControlRequest                  .build/obj_cool836A_verB_RED_default/lib/lufa/LUFA/Drivers/USB/Core/DeviceStandardReq.o
                                                  .build/obj_cool836A_verB_RED_default/lib/lufa/LUFA/Drivers/USB/Core/USBTask.o
                                                  .build/obj_cool836A_verB_RED_default/lib/lufa/LUFA/Drivers/USB/Core/AVR8/USBInterrupt_AVR8.o
USB_Device_RemoteWakeupEnabled                    .build/obj_cool836A_verB_RED_default/lib/lufa/LUFA/Drivers/USB/Core/DeviceStandardReq.o
                                                  .build/obj_cool836A_verB_RED_default/lib/lufa/LUFA/Drivers/USB/Core/AVR8/USBController_AVR8.o
                                                  .build/obj_cool836A_verB_RED_default/lufa.o
USB_Device_SendRemoteWakeup                       .build/obj_cool836A_verB_RED_default/lib/lufa/LUFA/Drivers/USB/Core/AVR8/Device_AVR8.o
                                                  .build/obj_cool836A_verB_RED_default/lufa.o
USB_Disable                                       .build/obj_cool836A_verB_RED_default/lib/lufa/LUFA/Drivers/USB/Core/AVR8/USBController_AVR8.o
                                                  .build/obj_cool836A_verB_RED_default/lufa.o
USB_Event_Stub                                    .build/obj_cool836A_verB_RED_default/lib/lufa/LUFA/Drivers/USB/Core/Events.o
USB_Event_Stub_2                                  .build/obj_cool836A_verB_RED_default/lib/lufa/LUFA/Drivers/USB/Core/Events.o
USB_Event_Stub_3                                  .build/obj_cool836A_verB_RED_default/lib/lufa/LUFA/Drivers/USB/Core/Events.o
USB_GetHIDReportItemInfo                          .build/obj_cool836A_verB_RED_default/lib/lufa/LUFA/Drivers/USB/Class/Common/HIDParser.o
USB_GetHIDReportSize                              .build/obj_cool836A_verB_RED_default/lib/lufa/LUFA/Drivers/USB/Class/Common/HIDParser.o
USB_GetNextDescriptorComp                         .build/obj_cool836A_verB_RED_default/lib/lufa/LUFA/Drivers/USB/Core/ConfigDescriptors.o
USB_GetNextDescriptorOfType                       .build/obj_cool836A_verB_RED_default/lib/lufa/LUFA/Drivers/USB/Core/ConfigDescriptors.o
USB_GetNextDescriptorOfTypeAfter                  .build/obj_cool836A_verB_RED_default/lib/lufa/LUFA/Drivers/USB/Core/ConfigDescriptors.o
USB_GetNextDescriptorOfTypeBefore                 .build/obj_cool836A_verB_RED_default/lib/lufa/LUFA/Drivers/USB/Core/ConfigDescriptors.o
USB_INT_ClearAllInterrupts                        .build/obj_cool836A_verB_RED_default/lib/lufa/LUFA/Drivers/USB/Core/AVR8/USBInterrupt_AVR8.o
                                                  .build/obj_cool836A_verB_RED_default/lib/lufa/LUFA/Drivers/USB/Core/AVR8/USBController_AVR8.o
USB_INT_DisableAllInterrupts                      .build/obj_cool836A_verB_RED_default/lib/lufa/LUFA/Drivers/USB/Core/AVR8/USBInterrupt_AVR8.o
                                                  .build/obj_cool836A_verB_RED_default/lib/lufa/LUFA/Drivers/USB/Core/AVR8/USBController_AVR8.o
USB_Init                                          .build/obj_cool836A_verB_RED_default/lib/lufa/LUFA/Drivers/USB/Core/AVR8/USBController_AVR8.o
                                                  .build/obj_cool836A_verB_RED_default/lufa.o
USB_IsInitialized                                 .build/obj_cool836A_verB_RED_default/lib/lufa/LUFA/Drivers/USB/Core/USBTask.o
                                                  .build/obj_cool836A_verB_RED_default/lib/lufa/LUFA/Drivers/USB/Core/AVR8/USBController_AVR8.o
                                                  .build/obj_cool836A_verB_RED_default/lufa.o
USB_ProcessHIDReport                              .build/obj_cool836A_verB_RED_default/lib/lufa/LUFA/Drivers/USB/Class/Common/HIDParser.o
USB_ResetInterface                                .build/obj_cool836A_verB_RED_default/lib/lufa/LUFA/Drivers/USB/Core/AVR8/USBController_AVR8.o
USB_SetHIDReportItemInfo                          .build/obj_cool836A_verB_RED_default/lib/lufa/LUFA/Drivers/USB/Class/Common/HIDParser.o
USB_USBTask                                       .build/obj_cool836A_verB_RED_default/lib/lufa/LUFA/Drivers/USB/Core/USBTask.o
                                                  .build/obj_cool836A_verB_RED_default/lufa.o
__FUSE_REGION_LENGTH__                            /usr/lib/gcc/avr/5.4.0/../../../avr/lib/avr5/crtatmega32u4.o
__bad_interrupt                                   /usr/lib/gcc/avr/5.4.0/../../../avr/lib/avr5/crtatmega32u4.o
__bss_end                                         /usr/lib/gcc/avr/5.4.0/avr5/libgcc.a(_clear_bss.o)
__bss_start                                       /usr/lib/gcc/avr/5.4.0/avr5/libgcc.a(_clear_bss.o)
__data_end                                        /usr/lib/gcc/avr/5.4.0/avr5/libgcc.a(_copy_data.o)
__data_load_start                                 /usr/lib/gcc/avr/5.4.0/avr5/libgcc.a(_copy_data.o)
__data_start                                      /usr/lib/gcc/avr/5.4.0/avr5/libgcc.a(_copy_data.o)
__divmodhi4                                       /usr/lib/gcc/avr/5.4.0/avr5/libgcc.a(_divmodhi4.o)
                                                  .build/obj_cool836A_verB_RED_default/common/mousekey.o
__do_clear_bss                                    /usr/lib/gcc/avr/5.4.0/avr5/libgcc.a(_clear_bss.o)
                                                  .build/obj_cool836A_verB_RED_default/lib/lufa/LUFA/Drivers/USB/Core/USBTask.o
                                                  .build/obj_cool836A_verB_RED_default/lib/lufa/LUFA/Drivers/USB/Core/DeviceStandardReq.o
                                                  .build/obj_cool836A_verB_RED_default/lufa.o
                                                  .build/obj_cool836A_verB_RED_default/common/mousekey.o
                                                  .build/obj_cool836A_verB_RED_default/common/magic.o
                                                  .build/obj_cool836A_verB_RED_default/common/avr/timer.o
                                                  .build/obj_cool836A_verB_RED_default/common/avr/suspend.o
                                                  .build/obj_cool836A_verB_RED_default/common/debug.o
                                                  .build/obj_cool836A_verB_RED_default/common/action_util.o
                                                  .build/obj_cool836A_verB_RED_default/common/action_layer.o
                                                  .build/obj_cool836A_verB_RED_default/common/action_tapping.o
                                                  .build/obj_cool836A_verB_RED_default/common/action.o
                                                  .build/obj_cool836A_verB_RED_default/common/keyboard.o
                                                  .build/obj_cool836A_verB_RED_default/common/host.o
                                                  .build/obj_cool836A_verB_RED_default/quantum/process_keycode/process_grave_esc.o
                                                  .build/obj_cool836A_verB_RED_default/quantum/process_keycode/process_space_cadet.o
                                                  .build/obj_cool836A_verB_RED_default/quantum/debounce/sym_defer_g.o
                                                  .build/obj_cool836A_verB_RED_default/quantum/matrix_common.o
__do_copy_data                                    /usr/lib/gcc/avr/5.4.0/avr5/libgcc.a(_copy_data.o)
                                                  .build/obj_cool836A_verB_RED_default/lufa.o
                                                  .build/obj_cool836A_verB_RED_default/common/mousekey.o
                                                  .build/obj_cool836A_verB_RED_default/common/action_util.o
                                                  .build/obj_cool836A_verB_RED_default/common/action.o
                                                  .build/obj_cool836A_verB_RED_default/quantum/matrix.o
                                                  .build/obj_cool836A_verB_RED_default/quantum/keymap_common.o
__heap_end                                        /usr/lib/gcc/avr/5.4.0/../../../avr/lib/avr5/crtatmega32u4.o
__init                                            /usr/lib/gcc/avr/5.4.0/../../../avr/lib/avr5/crtatmega32u4.o
__stack                                           /usr/lib/gcc/avr/5.4.0/../../../avr/lib/avr5/crtatmega32u4.o
__tablejump2__                                    /usr/lib/gcc/avr/5.4.0/avr5/libgcc.a(_tablejump2.o)
                                                  .build/obj_cool836A_verB_RED_default/lib/lufa/LUFA/Drivers/USB/Core/DeviceStandardReq.o
                                                  .build/obj_cool836A_verB_RED_default/common/action.o
__udivmodhi4                                      /usr/lib/gcc/avr/5.4.0/avr5/libgcc.a(_udivmodhi4.o)
                                                  /usr/lib/gcc/avr/5.4.0/avr5/libgcc.a(_divmodhi4.o)
__vector_1                                        /usr/lib/gcc/avr/5.4.0/../../../avr/lib/avr5/crtatmega32u4.o
__vector_10                                       .build/obj_cool836A_verB_RED_default/lib/lufa/LUFA/Drivers/USB/Core/AVR8/USBInterrupt_AVR8.o
                                                  /usr/lib/gcc/avr/5.4.0/../../../avr/lib/avr5/crtatmega32u4.o
__vector_11                                       .build/obj_cool836A_verB_RED_default/lib/lufa/LUFA/Drivers/USB/Core/AVR8/USBInterrupt_AVR8.o
                                                  /usr/lib/gcc/avr/5.4.0/../../../avr/lib/avr5/crtatmega32u4.o
__vector_12                                       .build/obj_cool836A_verB_RED_default/common/avr/suspend.o
                                                  /usr/lib/gcc/avr/5.4.0/../../../avr/lib/avr5/crtatmega32u4.o
__vector_13                                       /usr/lib/gcc/avr/5.4.0/../../../avr/lib/avr5/crtatmega32u4.o
__vector_14                                       /usr/lib/gcc/avr/5.4.0/../../../avr/lib/avr5/crtatmega32u4.o
__vector_15                                       /usr/lib/gcc/avr/5.4.0/../../../avr/lib/avr5/crtatmega32u4.o
__vector_16                                       /usr/lib/gcc/avr/5.4.0/../../../avr/lib/avr5/crtatmega32u4.o
__vector_17                                       /usr/lib/gcc/avr/5.4.0/../../../avr/lib/avr5/crtatmega32u4.o
__vector_18                                       /usr/lib/gcc/avr/5.4.0/../../../avr/lib/avr5/crtatmega32u4.o
__vector_19                                       /usr/lib/gcc/avr/5.4.0/../../../avr/lib/avr5/crtatmega32u4.o
__vector_2                                        /usr/lib/gcc/avr/5.4.0/../../../avr/lib/avr5/crtatmega32u4.o
__vector_20                                       /usr/lib/gcc/avr/5.4.0/../../../avr/lib/avr5/crtatmega32u4.o
__vector_21                                       .build/obj_cool836A_verB_RED_default/common/avr/timer.o
                                                  /usr/lib/gcc/avr/5.4.0/../../../avr/lib/avr5/crtatmega32u4.o
__vector_22                                       /usr/lib/gcc/avr/5.4.0/../../../avr/lib/avr5/crtatmega32u4.o
__vector_23                                       /usr/lib/gcc/avr/5.4.0/../../../avr/lib/avr5/crtatmega32u4.o
__vector_24                                       /usr/lib/gcc/avr/5.4.0/../../../avr/lib/avr5/crtatmega32u4.o
__vector_25                                       /usr/lib/gcc/avr/5.4.0/../../../avr/lib/avr5/crtatmega32u4.o
__vector_26                                       /usr/lib/gcc/avr/5.4.0/../../../avr/lib/avr5/crtatmega32u4.o
__vector_27                                       /usr/lib/gcc/avr/5.4.0/../../../avr/lib/avr5/crtatmega32u4.o
__vector_28                                       /usr/lib/gcc/avr/5.4.0/../../../avr/lib/avr5/crtatmega32u4.o
__vector_29                                       /usr/lib/gcc/avr/5.4.0/../../../avr/lib/avr5/crtatmega32u4.o
__vector_3                                        /usr/lib/gcc/avr/5.4.0/../../../avr/lib/avr5/crtatmega32u4.o
__vector_30                                       /usr/lib/gcc/avr/5.4.0/../../../avr/lib/avr5/crtatmega32u4.o
__vector_31                                       /usr/lib/gcc/avr/5.4.0/../../../avr/lib/avr5/crtatmega32u4.o
__vector_32                                       /usr/lib/gcc/avr/5.4.0/../../../avr/lib/avr5/crtatmega32u4.o
__vector_33                                       /usr/lib/gcc/avr/5.4.0/../../../avr/lib/avr5/crtatmega32u4.o
__vector_34                                       /usr/lib/gcc/avr/5.4.0/../../../avr/lib/avr5/crtatmega32u4.o
__vector_35                                       /usr/lib/gcc/avr/5.4.0/../../../avr/lib/avr5/crtatmega32u4.o
__vector_36                                       /usr/lib/gcc/avr/5.4.0/../../../avr/lib/avr5/crtatmega32u4.o
__vector_37                                       /usr/lib/gcc/avr/5.4.0/../../../avr/lib/avr5/crtatmega32u4.o
__vector_38                                       /usr/lib/gcc/avr/5.4.0/../../../avr/lib/avr5/crtatmega32u4.o
__vector_39                                       /usr/lib/gcc/avr/5.4.0/../../../avr/lib/avr5/crtatmega32u4.o
__vector_4                                        /usr/lib/gcc/avr/5.4.0/../../../avr/lib/avr5/crtatmega32u4.o
__vector_40                                       /usr/lib/gcc/avr/5.4.0/../../../avr/lib/avr5/crtatmega32u4.o
__vector_41                                       /usr/lib/gcc/avr/5.4.0/../../../avr/lib/avr5/crtatmega32u4.o
__vector_42                                       /usr/lib/gcc/avr/5.4.0/../../../avr/lib/avr5/crtatmega32u4.o
__vector_5                                        /usr/lib/gcc/avr/5.4.0/../../../avr/lib/avr5/crtatmega32u4.o
__vector_6                                        /usr/lib/gcc/avr/5.4.0/../../../avr/lib/avr5/crtatmega32u4.o
__vector_7                                        /usr/lib/gcc/avr/5.4.0/../../../avr/lib/avr5/crtatmega32u4.o
__vector_8                                        /usr/lib/gcc/avr/5.4.0/../../../avr/lib/avr5/crtatmega32u4.o
__vector_9                                        /usr/lib/gcc/avr/5.4.0/../../../avr/lib/avr5/crtatmega32u4.o
__vector_default                                  /usr/lib/gcc/avr/5.4.0/../../../avr/lib/avr5/crtatmega32u4.o
__vectors                                         /usr/lib/gcc/avr/5.4.0/../../../avr/lib/avr5/crtatmega32u4.o
__xprintf                                         .build/obj_cool836A_verB_RED_default/common/avr/xprintf.o
_div                                              /usr/lib/gcc/avr/5.4.0/avr5/libgcc.a(_divmodhi4.o)
_exit                                             /usr/lib/gcc/avr/5.4.0/avr5/libgcc.a(_exit.o)
action_exec                                       .build/obj_cool836A_verB_RED_default/common/action.o
                                                  .build/obj_cool836A_verB_RED_default/common/keyboard.o
action_for_key                                    .build/obj_cool836A_verB_RED_default/quantum/keymap_common.o
                                                  .build/obj_cool836A_verB_RED_default/common/action_layer.o
action_function                                   .build/obj_cool836A_verB_RED_default/quantum/keymap_common.o
action_get_macro                                  .build/obj_cool836A_verB_RED_default/quantum/keymap_common.o
action_tapping_process                            .build/obj_cool836A_verB_RED_default/common/action_tapping.o
                                                  .build/obj_cool836A_verB_RED_default/common/action.o
add_key                                           .build/obj_cool836A_verB_RED_default/common/action_util.o
add_key_byte                                      .build/obj_cool836A_verB_RED_default/common/report.o
add_key_to_report                                 .build/obj_cool836A_verB_RED_default/common/report.o
                                                  .build/obj_cool836A_verB_RED_default/common/action_util.o
                                                  .build/obj_cool836A_verB_RED_default/common/action.o
                                                  .build/obj_cool836A_verB_RED_default/quantum/process_keycode/process_grave_esc.o
add_macro_mods                                    .build/obj_cool836A_verB_RED_default/common/action_util.o
add_mods                                          .build/obj_cool836A_verB_RED_default/common/action_util.o
                                                  .build/obj_cool836A_verB_RED_default/common/action.o
add_oneshot_mods                                  .build/obj_cool836A_verB_RED_default/common/action_util.o
add_weak_mods                                     .build/obj_cool836A_verB_RED_default/common/action_util.o
                                                  .build/obj_cool836A_verB_RED_default/common/action.o
api_send_unicode                                  .build/obj_cool836A_verB_RED_default/quantum/quantum.o
ascii_to_altgr_lut                                .build/obj_cool836A_verB_RED_default/quantum/quantum.o
ascii_to_keycode_lut                              .build/obj_cool836A_verB_RED_default/quantum/quantum.o
ascii_to_shift_lut                                .build/obj_cool836A_verB_RED_default/quantum/quantum.o
biton                                             .build/obj_cool836A_verB_RED_default/common/util.o
biton16                                           .build/obj_cool836A_verB_RED_default/common/util.o
biton32                                           .build/obj_cool836A_verB_RED_default/common/util.o
bitpop                                            .build/obj_cool836A_verB_RED_default/common/util.o
                                                  .build/obj_cool836A_verB_RED_default/common/action_util.o
                                                  .build/obj_cool836A_verB_RED_default/quantum/matrix_common.o
bitpop16                                          .build/obj_cool836A_verB_RED_default/common/util.o
bitpop32                                          .build/obj_cool836A_verB_RED_default/common/util.o
bitrev                                            .build/obj_cool836A_verB_RED_default/common/util.o
bitrev16                                          .build/obj_cool836A_verB_RED_default/common/util.o
bitrev32                                          .build/obj_cool836A_verB_RED_default/common/util.o
bootloader_jump                                   .build/obj_cool836A_verB_RED_default/common/avr/bootloader.o
                                                  .build/obj_cool836A_verB_RED_default/common/bootmagic_lite.o
                                                  .build/obj_cool836A_verB_RED_default/quantum/quantum.o
bootloader_jump_after_watchdog_reset              .build/obj_cool836A_verB_RED_default/common/avr/bootloader.o
bootmagic_lite                                    .build/obj_cool836A_verB_RED_default/common/bootmagic_lite.o
                                                  .build/obj_cool836A_verB_RED_default/quantum/quantum.o
bootmagic_lite_reset_eeprom                       .build/obj_cool836A_verB_RED_default/common/bootmagic_lite.o
clear_keyboard                                    .build/obj_cool836A_verB_RED_default/common/action.o
                                                  .build/obj_cool836A_verB_RED_default/lufa.o
                                                  .build/obj_cool836A_verB_RED_default/common/avr/suspend.o
                                                  .build/obj_cool836A_verB_RED_default/common/action_tapping.o
                                                  .build/obj_cool836A_verB_RED_default/quantum/process_keycode/process_magic.o
                                                  .build/obj_cool836A_verB_RED_default/quantum/quantum.o
clear_keyboard_but_mods                           .build/obj_cool836A_verB_RED_default/common/action.o
clear_keyboard_but_mods_and_keys                  .build/obj_cool836A_verB_RED_default/common/action.o
                                                  .build/obj_cool836A_verB_RED_default/common/action_layer.o
clear_keys                                        .build/obj_cool836A_verB_RED_default/common/action_util.o
clear_keys_from_report                            .build/obj_cool836A_verB_RED_default/common/report.o
                                                  .build/obj_cool836A_verB_RED_default/common/action_util.o
                                                  .build/obj_cool836A_verB_RED_default/common/action.o
clear_macro_mods                                  .build/obj_cool836A_verB_RED_default/common/action_util.o
                                                  .build/obj_cool836A_verB_RED_default/common/action.o
clear_mods                                        .build/obj_cool836A_verB_RED_default/common/action_util.o
                                                  .build/obj_cool836A_verB_RED_default/common/action.o
clear_oneshot_layer_state                         .build/obj_cool836A_verB_RED_default/common/action_util.o
                                                  .build/obj_cool836A_verB_RED_default/common/action.o
clear_oneshot_locked_mods                         .build/obj_cool836A_verB_RED_default/common/action_util.o
clear_oneshot_mods                                .build/obj_cool836A_verB_RED_default/common/action_util.o
                                                  .build/obj_cool836A_verB_RED_default/common/action.o
clear_weak_mods                                   .build/obj_cool836A_verB_RED_default/common/action_util.o
                                                  .build/obj_cool836A_verB_RED_default/common/action.o
debounce                                          .build/obj_cool836A_verB_RED_default/quantum/debounce/sym_defer_g.o
                                                  .build/obj_cool836A_verB_RED_default/quantum/matrix.o
                                                  .build/obj_cool836A_verB_RED_default/quantum/matrix_common.o
debounce_active                                   .build/obj_cool836A_verB_RED_default/quantum/debounce/sym_defer_g.o
                                                  .build/obj_cool836A_verB_RED_default/quantum/matrix_common.o
debounce_init                                     .build/obj_cool836A_verB_RED_default/quantum/debounce/sym_defer_g.o
                                                  .build/obj_cool836A_verB_RED_default/quantum/matrix.o
                                                  .build/obj_cool836A_verB_RED_default/quantum/matrix_common.o
debug_action                                      .build/obj_cool836A_verB_RED_default/common/action.o
debug_config                                      .build/obj_cool836A_verB_RED_default/common/debug.o
                                                  .build/obj_cool836A_verB_RED_default/common/magic.o
                                                  .build/obj_cool836A_verB_RED_default/common/keyboard.o
debug_event                                       .build/obj_cool836A_verB_RED_default/common/action.o
                                                  .build/obj_cool836A_verB_RED_default/common/action_tapping.o
debug_record                                      .build/obj_cool836A_verB_RED_default/common/action.o
                                                  .build/obj_cool836A_verB_RED_default/common/action_tapping.o
default_layer_and                                 .build/obj_cool836A_verB_RED_default/common/action_layer.o
                                                  .build/obj_cool836A_verB_RED_default/common/action.o
default_layer_debug                               .build/obj_cool836A_verB_RED_default/common/action_layer.o
                                                  .build/obj_cool836A_verB_RED_default/common/action.o
default_layer_or                                  .build/obj_cool836A_verB_RED_default/common/action_layer.o
                                                  .build/obj_cool836A_verB_RED_default/common/action.o
default_layer_set                                 .build/obj_cool836A_verB_RED_default/common/action_layer.o
                                                  .build/obj_cool836A_verB_RED_default/common/magic.o
                                                  .build/obj_cool836A_verB_RED_default/common/action.o
                                                  .build/obj_cool836A_verB_RED_default/quantum/quantum.o
default_layer_state                               .build/obj_cool836A_verB_RED_default/common/action_layer.o
                                                  .build/obj_cool836A_verB_RED_default/common/eeconfig.o
default_layer_state_set_kb                        .build/obj_cool836A_verB_RED_default/common/action_layer.o
default_layer_state_set_user                      .build/obj_cool836A_verB_RED_default/common/action_layer.o
default_layer_xor                                 .build/obj_cool836A_verB_RED_default/common/action_layer.o
                                                  .build/obj_cool836A_verB_RED_default/common/action.o
del_key                                           .build/obj_cool836A_verB_RED_default/common/action_util.o
del_key_byte                                      .build/obj_cool836A_verB_RED_default/common/report.o
del_key_from_report                               .build/obj_cool836A_verB_RED_default/common/report.o
                                                  .build/obj_cool836A_verB_RED_default/common/action_util.o
                                                  .build/obj_cool836A_verB_RED_default/common/action.o
                                                  .build/obj_cool836A_verB_RED_default/quantum/process_keycode/process_grave_esc.o
del_macro_mods                                    .build/obj_cool836A_verB_RED_default/common/action_util.o
del_mods                                          .build/obj_cool836A_verB_RED_default/common/action_util.o
                                                  .build/obj_cool836A_verB_RED_default/common/action.o
del_oneshot_mods                                  .build/obj_cool836A_verB_RED_default/common/action_util.o
del_weak_mods                                     .build/obj_cool836A_verB_RED_default/common/action_util.o
                                                  .build/obj_cool836A_verB_RED_default/common/action.o
disable_action_cache                              .build/obj_cool836A_verB_RED_default/common/action.o
                                                  .build/obj_cool836A_verB_RED_default/common/action_layer.o
                                                  .build/obj_cool836A_verB_RED_default/quantum/quantum.o
disable_jtag                                      .build/obj_cool836A_verB_RED_default/common/keyboard.o
eeconfig_disable                                  .build/obj_cool836A_verB_RED_default/common/eeconfig.o
                                                  .build/obj_cool836A_verB_RED_default/common/bootmagic_lite.o
eeconfig_enable                                   .build/obj_cool836A_verB_RED_default/common/eeconfig.o
eeconfig_init                                     .build/obj_cool836A_verB_RED_default/common/eeconfig.o
                                                  .build/obj_cool836A_verB_RED_default/common/magic.o
                                                  .build/obj_cool836A_verB_RED_default/quantum/quantum.o
eeconfig_init_kb                                  .build/obj_cool836A_verB_RED_default/common/eeconfig.o
eeconfig_init_quantum                             .build/obj_cool836A_verB_RED_default/common/eeconfig.o
eeconfig_init_user                                .build/obj_cool836A_verB_RED_default/common/eeconfig.o
eeconfig_is_disabled                              .build/obj_cool836A_verB_RED_default/common/eeconfig.o
eeconfig_is_enabled                               .build/obj_cool836A_verB_RED_default/common/eeconfig.o
                                                  .build/obj_cool836A_verB_RED_default/common/magic.o
                                                  .build/obj_cool836A_verB_RED_default/quantum/quantum.o
eeconfig_read_audio                               .build/obj_cool836A_verB_RED_default/common/eeconfig.o
eeconfig_read_backlight                           .build/obj_cool836A_verB_RED_default/common/eeconfig.o
eeconfig_read_debug                               .build/obj_cool836A_verB_RED_default/common/eeconfig.o
                                                  .build/obj_cool836A_verB_RED_default/common/magic.o
eeconfig_read_default_layer                       .build/obj_cool836A_verB_RED_default/common/eeconfig.o
                                                  .build/obj_cool836A_verB_RED_default/common/magic.o
eeconfig_read_handedness                          .build/obj_cool836A_verB_RED_default/common/eeconfig.o
eeconfig_read_haptic                              .build/obj_cool836A_verB_RED_default/common/eeconfig.o
eeconfig_read_kb                                  .build/obj_cool836A_verB_RED_default/common/eeconfig.o
eeconfig_read_keymap                              .build/obj_cool836A_verB_RED_default/common/eeconfig.o
                                                  .build/obj_cool836A_verB_RED_default/common/magic.o
                                                  .build/obj_cool836A_verB_RED_default/quantum/process_keycode/process_magic.o
eeconfig_read_user                                .build/obj_cool836A_verB_RED_default/common/eeconfig.o
eeconfig_update_audio                             .build/obj_cool836A_verB_RED_default/common/eeconfig.o
eeconfig_update_backlight                         .build/obj_cool836A_verB_RED_default/common/eeconfig.o
eeconfig_update_debug                             .build/obj_cool836A_verB_RED_default/common/eeconfig.o
eeconfig_update_default_layer                     .build/obj_cool836A_verB_RED_default/common/eeconfig.o
                                                  .build/obj_cool836A_verB_RED_default/quantum/quantum.o
eeconfig_update_handedness                        .build/obj_cool836A_verB_RED_default/common/eeconfig.o
                                                  .build/obj_cool836A_verB_RED_default/quantum/process_keycode/process_magic.o
eeconfig_update_haptic                            .build/obj_cool836A_verB_RED_default/common/eeconfig.o
eeconfig_update_kb                                .build/obj_cool836A_verB_RED_default/common/eeconfig.o
eeconfig_update_keymap                            .build/obj_cool836A_verB_RED_default/common/eeconfig.o
                                                  .build/obj_cool836A_verB_RED_default/quantum/process_keycode/process_magic.o
eeconfig_update_user                              .build/obj_cool836A_verB_RED_default/common/eeconfig.o
eeprom_read_block                                 /usr/lib/gcc/avr/5.4.0/../../../avr/lib/avr5/libatmega32u4.a(eerd_block.o)
eeprom_read_blraw                                 /usr/lib/gcc/avr/5.4.0/../../../avr/lib/avr5/libatmega32u4.a(eerd_block.o)
                                                  /usr/lib/gcc/avr/5.4.0/../../../avr/lib/avr5/libatmega32u4.a(eerd_word.o)
                                                  /usr/lib/gcc/avr/5.4.0/../../../avr/lib/avr5/libatmega32u4.a(eerd_dword.o)
eeprom_read_byte                                  /usr/lib/gcc/avr/5.4.0/../../../avr/lib/avr5/libatmega32u4.a(eerd_byte.o)
                                                  .build/obj_cool836A_verB_RED_default/lib/lufa/LUFA/Drivers/USB/Core/AVR8/EndpointStream_AVR8.o
                                                  .build/obj_cool836A_verB_RED_default/common/eeconfig.o
eeprom_read_dword                                 /usr/lib/gcc/avr/5.4.0/../../../avr/lib/avr5/libatmega32u4.a(eerd_dword.o)
                                                  .build/obj_cool836A_verB_RED_default/common/eeconfig.o
eeprom_read_float                                 /usr/lib/gcc/avr/5.4.0/../../../avr/lib/avr5/libatmega32u4.a(eerd_dword.o)
eeprom_read_word                                  /usr/lib/gcc/avr/5.4.0/../../../avr/lib/avr5/libatmega32u4.a(eerd_word.o)
                                                  .build/obj_cool836A_verB_RED_default/common/eeconfig.o
eeprom_update_byte                                /usr/lib/gcc/avr/5.4.0/../../../avr/lib/avr5/libatmega32u4.a(eeupd_byte.o)
                                                  /usr/lib/gcc/avr/5.4.0/../../../avr/lib/avr5/libatmega32u4.a(eeupd_word.o)
                                                  /usr/lib/gcc/avr/5.4.0/../../../avr/lib/avr5/libatmega32u4.a(eeupd_dword.o)
                                                  .build/obj_cool836A_verB_RED_default/lib/lufa/LUFA/Drivers/USB/Core/AVR8/EndpointStream_AVR8.o
                                                  .build/obj_cool836A_verB_RED_default/common/eeconfig.o
eeprom_update_dword                               /usr/lib/gcc/avr/5.4.0/../../../avr/lib/avr5/libatmega32u4.a(eeupd_dword.o)
                                                  .build/obj_cool836A_verB_RED_default/common/eeconfig.o
eeprom_update_float                               /usr/lib/gcc/avr/5.4.0/../../../avr/lib/avr5/libatmega32u4.a(eeupd_dword.o)
eeprom_update_r18                                 /usr/lib/gcc/avr/5.4.0/../../../avr/lib/avr5/libatmega32u4.a(eeupd_byte.o)
                                                  /usr/lib/gcc/avr/5.4.0/../../../avr/lib/avr5/libatmega32u4.a(eeupd_word.o)
                                                  /usr/lib/gcc/avr/5.4.0/../../../avr/lib/avr5/libatmega32u4.a(eeupd_dword.o)
eeprom_update_word                                /usr/lib/gcc/avr/5.4.0/../../../avr/lib/avr5/libatmega32u4.a(eeupd_word.o)
                                                  .build/obj_cool836A_verB_RED_default/common/eeconfig.o
exit                                              /usr/lib/gcc/avr/5.4.0/avr5/libgcc.a(_exit.o)
                                                  /usr/lib/gcc/avr/5.4.0/../../../avr/lib/avr5/crtatmega32u4.o
fn_actions                                        .build/obj_cool836A_verB_RED_default/quantum/keymap_common.o
get_event_keycode                                 .build/obj_cool836A_verB_RED_default/quantum/quantum.o
get_first_key                                     .build/obj_cool836A_verB_RED_default/common/report.o
get_macro_mods                                    .build/obj_cool836A_verB_RED_default/common/action_util.o
get_mods                                          .build/obj_cool836A_verB_RED_default/common/action_util.o
                                                  .build/obj_cool836A_verB_RED_default/quantum/process_keycode/process_grave_esc.o
get_oneshot_layer                                 .build/obj_cool836A_verB_RED_default/common/action_util.o
                                                  .build/obj_cool836A_verB_RED_default/common/action.o
get_oneshot_layer_state                           .build/obj_cool836A_verB_RED_default/common/action_util.o
                                                  .build/obj_cool836A_verB_RED_default/common/action.o
get_oneshot_locked_mods                           .build/obj_cool836A_verB_RED_default/common/action_util.o
get_oneshot_mods                                  .build/obj_cool836A_verB_RED_default/common/action_util.o
                                                  .build/obj_cool836A_verB_RED_default/common/action.o
get_record_keycode                                .build/obj_cool836A_verB_RED_default/quantum/quantum.o
get_tapping_term                                  .build/obj_cool836A_verB_RED_default/common/action_tapping.o
get_usb_descriptor                                .build/obj_cool836A_verB_RED_default/usb_descriptor.o
                                                  .build/obj_cool836A_verB_RED_default/lufa.o
get_weak_mods                                     .build/obj_cool836A_verB_RED_default/common/action_util.o
has_anykey                                        .build/obj_cool836A_verB_RED_default/common/report.o
                                                  .build/obj_cool836A_verB_RED_default/common/action_util.o
has_anymod                                        .build/obj_cool836A_verB_RED_default/common/action_util.o
has_oneshot_mods_timed_out                        .build/obj_cool836A_verB_RED_default/common/action_util.o
hex_to_keycode                                    .build/obj_cool836A_verB_RED_default/quantum/quantum.o
host_consumer_send                                .build/obj_cool836A_verB_RED_default/common/host.o
                                                  .build/obj_cool836A_verB_RED_default/common/action.o
host_get_driver                                   .build/obj_cool836A_verB_RED_default/common/host.o
host_keyboard_led_state                           .build/obj_cool836A_verB_RED_default/common/host.o
host_keyboard_leds                                .build/obj_cool836A_verB_RED_default/common/host.o
                                                  .build/obj_cool836A_verB_RED_default/common/avr/suspend.o
                                                  .build/obj_cool836A_verB_RED_default/common/action.o
                                                  .build/obj_cool836A_verB_RED_default/common/keyboard.o
host_keyboard_send                                .build/obj_cool836A_verB_RED_default/common/host.o
                                                  .build/obj_cool836A_verB_RED_default/common/action_util.o
host_last_consumer_report                         .build/obj_cool836A_verB_RED_default/common/host.o
host_last_system_report                           .build/obj_cool836A_verB_RED_default/common/host.o
host_mouse_send                                   .build/obj_cool836A_verB_RED_default/common/host.o
                                                  .build/obj_cool836A_verB_RED_default/common/mousekey.o
host_set_driver                                   .build/obj_cool836A_verB_RED_default/common/host.o
                                                  .build/obj_cool836A_verB_RED_default/lufa.o
host_system_send                                  .build/obj_cool836A_verB_RED_default/common/host.o
                                                  .build/obj_cool836A_verB_RED_default/common/action.o
housekeeping_task_kb                              .build/obj_cool836A_verB_RED_default/common/keyboard.o
                                                  .build/obj_cool836A_verB_RED_default/lufa.o
housekeeping_task_user                            .build/obj_cool836A_verB_RED_default/common/keyboard.o
                                                  .build/obj_cool836A_verB_RED_default/lufa.o
is_key_pressed                                    .build/obj_cool836A_verB_RED_default/common/report.o
                                                  .build/obj_cool836A_verB_RED_default/common/action.o
is_keyboard_left                                  .build/obj_cool836A_verB_RED_default/common/keyboard.o
is_keyboard_master                                .build/obj_cool836A_verB_RED_default/common/keyboard.o
is_oneshot_layer_active                           .build/obj_cool836A_verB_RED_default/common/action_util.o
                                                  .build/obj_cool836A_verB_RED_default/common/action.o
is_tap_action                                     .build/obj_cool836A_verB_RED_default/common/action.o
is_tap_key                                        .build/obj_cool836A_verB_RED_default/common/action.o
                                                  .build/obj_cool836A_verB_RED_default/common/action_tapping.o
keyboard_idle                                     .build/obj_cool836A_verB_RED_default/lufa.o
keyboard_init                                     .build/obj_cool836A_verB_RED_default/common/keyboard.o
                                                  .build/obj_cool836A_verB_RED_default/lufa.o
keyboard_post_init_kb                             .build/obj_cool836A_verB_RED_default/common/keyboard.o
keyboard_post_init_user                           .build/obj_cool836A_verB_RED_default/common/keyboard.o
keyboard_pre_init_kb                              .build/obj_cool836A_verB_RED_default/common/keyboard.o
keyboard_pre_init_user                            .build/obj_cool836A_verB_RED_default/common/keyboard.o
keyboard_protocol                                 .build/obj_cool836A_verB_RED_default/lufa.o
keyboard_report                                   .build/obj_cool836A_verB_RED_default/common/action_util.o
                                                  .build/obj_cool836A_verB_RED_default/common/action.o
                                                  .build/obj_cool836A_verB_RED_default/quantum/process_keycode/process_grave_esc.o
keyboard_set_leds                                 .build/obj_cool836A_verB_RED_default/common/keyboard.o
keyboard_setup                                    .build/obj_cool836A_verB_RED_default/common/keyboard.o
                                                  .build/obj_cool836A_verB_RED_default/lufa.o
keyboard_task                                     .build/obj_cool836A_verB_RED_default/common/keyboard.o
                                                  .build/obj_cool836A_verB_RED_default/lufa.o
keycode_config                                    .build/obj_cool836A_verB_RED_default/quantum/keycode_config.o
                                                  .build/obj_cool836A_verB_RED_default/quantum/keymap_common.o
keymap_config                                     .build/obj_cool836A_verB_RED_default/common/magic.o
                                                  .build/obj_cool836A_verB_RED_default/quantum/process_keycode/process_magic.o
                                                  .build/obj_cool836A_verB_RED_default/quantum/keycode_config.o
keymap_function_id_to_action                      .build/obj_cool836A_verB_RED_default/quantum/keymap_common.o
keymap_key_to_keycode                             .build/obj_cool836A_verB_RED_default/quantum/keymap_common.o
                                                  .build/obj_cool836A_verB_RED_default/quantum/quantum.o
keymaps                                           .build/obj_cool836A_verB_RED_default/keyboards/cool836A/keymaps/default/keymap.o
                                                  .build/obj_cool836A_verB_RED_default/quantum/keymap_common.o
layer_and                                         .build/obj_cool836A_verB_RED_default/common/action_layer.o
                                                  .build/obj_cool836A_verB_RED_default/common/action.o
layer_clear                                       .build/obj_cool836A_verB_RED_default/common/action_layer.o
                                                  .build/obj_cool836A_verB_RED_default/common/action.o
layer_debug                                       .build/obj_cool836A_verB_RED_default/common/action_layer.o
                                                  .build/obj_cool836A_verB_RED_default/common/action.o
layer_invert                                      .build/obj_cool836A_verB_RED_default/common/action_layer.o
                                                  .build/obj_cool836A_verB_RED_default/common/action.o
layer_move                                        .build/obj_cool836A_verB_RED_default/common/action_layer.o
                                                  .build/obj_cool836A_verB_RED_default/common/action.o
layer_off                                         .build/obj_cool836A_verB_RED_default/common/action_layer.o
                                                  .build/obj_cool836A_verB_RED_default/common/action_util.o
                                                  .build/obj_cool836A_verB_RED_default/common/action.o
layer_on                                          .build/obj_cool836A_verB_RED_default/common/action_layer.o
                                                  .build/obj_cool836A_verB_RED_default/common/action_util.o
                                                  .build/obj_cool836A_verB_RED_default/common/action.o
layer_or                                          .build/obj_cool836A_verB_RED_default/common/action_layer.o
                                                  .build/obj_cool836A_verB_RED_default/common/action.o
layer_state                                       .build/obj_cool836A_verB_RED_default/common/action_layer.o
                                                  .build/obj_cool836A_verB_RED_default/common/magic.o
                                                  .build/obj_cool836A_verB_RED_default/quantum/quantum.o
layer_state_cmp                                   .build/obj_cool836A_verB_RED_default/common/action_layer.o
layer_state_is                                    .build/obj_cool836A_verB_RED_default/common/action_layer.o
layer_state_set                                   .build/obj_cool836A_verB_RED_default/common/action_layer.o
                                                  .build/obj_cool836A_verB_RED_default/common/action.o
                                                  .build/obj_cool836A_verB_RED_default/quantum/quantum.o
layer_state_set_kb                                .build/obj_cool836A_verB_RED_default/common/action_layer.o
                                                  .build/obj_cool836A_verB_RED_default/common/magic.o
layer_state_set_user                              .build/obj_cool836A_verB_RED_default/common/action_layer.o
layer_switch_get_action                           .build/obj_cool836A_verB_RED_default/common/action_layer.o
                                                  .build/obj_cool836A_verB_RED_default/common/action_tapping.o
                                                  .build/obj_cool836A_verB_RED_default/common/action.o
layer_switch_get_layer                            .build/obj_cool836A_verB_RED_default/common/action_layer.o
                                                  .build/obj_cool836A_verB_RED_default/quantum/quantum.o
layer_xor                                         .build/obj_cool836A_verB_RED_default/common/action_layer.o
                                                  .build/obj_cool836A_verB_RED_default/common/action.o
led_init_ports                                    .build/obj_cool836A_verB_RED_default/quantum/led.o
led_set                                           .build/obj_cool836A_verB_RED_default/quantum/led.o
                                                  .build/obj_cool836A_verB_RED_default/common/avr/suspend.o
                                                  .build/obj_cool836A_verB_RED_default/common/action.o
                                                  .build/obj_cool836A_verB_RED_default/common/keyboard.o
led_set_kb                                        .build/obj_cool836A_verB_RED_default/quantum/led.o
led_set_user                                      .build/obj_cool836A_verB_RED_default/quantum/led.o
led_update_kb                                     .build/obj_cool836A_verB_RED_default/quantum/led.o
led_update_user                                   .build/obj_cool836A_verB_RED_default/quantum/led.o
lufa_driver                                       .build/obj_cool836A_verB_RED_default/lufa.o
magic                                             .build/obj_cool836A_verB_RED_default/common/magic.o
                                                  .build/obj_cool836A_verB_RED_default/common/keyboard.o
main                                              .build/obj_cool836A_verB_RED_default/lufa.o
                                                  /usr/lib/gcc/avr/5.4.0/../../../avr/lib/avr5/crtatmega32u4.o
matrix                                            .build/obj_cool836A_verB_RED_default/quantum/matrix_common.o
                                                  .build/obj_cool836A_verB_RED_default/quantum/matrix.o
matrix_cols                                       .build/obj_cool836A_verB_RED_default/quantum/matrix_common.o
matrix_get_row                                    .build/obj_cool836A_verB_RED_default/quantum/matrix_common.o
                                                  .build/obj_cool836A_verB_RED_default/common/bootmagic_lite.o
                                                  .build/obj_cool836A_verB_RED_default/common/avr/suspend.o
                                                  .build/obj_cool836A_verB_RED_default/common/keyboard.o
matrix_init                                       .build/obj_cool836A_verB_RED_default/quantum/matrix.o
                                                  .build/obj_cool836A_verB_RED_default/quantum/matrix_common.o
                                                  .build/obj_cool836A_verB_RED_default/common/keyboard.o
matrix_init_custom                                .build/obj_cool836A_verB_RED_default/quantum/matrix_common.o
matrix_init_kb                                    .build/obj_cool836A_verB_RED_default/quantum/matrix_common.o
                                                  .build/obj_cool836A_verB_RED_default/quantum/quantum.o
matrix_init_quantum                               .build/obj_cool836A_verB_RED_default/quantum/quantum.o
                                                  .build/obj_cool836A_verB_RED_default/quantum/matrix.o
                                                  .build/obj_cool836A_verB_RED_default/quantum/matrix_common.o
matrix_init_user                                  .build/obj_cool836A_verB_RED_default/quantum/matrix_common.o
matrix_io_delay                                   .build/obj_cool836A_verB_RED_default/quantum/matrix_common.o
                                                  .build/obj_cool836A_verB_RED_default/quantum/matrix.o
matrix_is_modified                                .build/obj_cool836A_verB_RED_default/quantum/matrix_common.o
matrix_is_on                                      .build/obj_cool836A_verB_RED_default/quantum/matrix_common.o
matrix_key_count                                  .build/obj_cool836A_verB_RED_default/quantum/matrix_common.o
matrix_power_down                                 .build/obj_cool836A_verB_RED_default/common/avr/suspend.o
matrix_power_up                                   .build/obj_cool836A_verB_RED_default/common/avr/suspend.o
matrix_print                                      .build/obj_cool836A_verB_RED_default/quantum/matrix_common.o
                                                  .build/obj_cool836A_verB_RED_default/common/keyboard.o
matrix_rows                                       .build/obj_cool836A_verB_RED_default/quantum/matrix_common.o
matrix_scan                                       .build/obj_cool836A_verB_RED_default/quantum/matrix.o
                                                  .build/obj_cool836A_verB_RED_default/quantum/matrix_common.o
                                                  .build/obj_cool836A_verB_RED_default/common/bootmagic_lite.o
                                                  .build/obj_cool836A_verB_RED_default/common/avr/suspend.o
                                                  .build/obj_cool836A_verB_RED_default/common/keyboard.o
matrix_scan_custom                                .build/obj_cool836A_verB_RED_default/quantum/matrix_common.o
matrix_scan_kb                                    .build/obj_cool836A_verB_RED_default/quantum/matrix_common.o
                                                  .build/obj_cool836A_verB_RED_default/quantum/quantum.o
matrix_scan_quantum                               .build/obj_cool836A_verB_RED_default/quantum/quantum.o
                                                  .build/obj_cool836A_verB_RED_default/quantum/matrix.o
                                                  .build/obj_cool836A_verB_RED_default/quantum/matrix_common.o
matrix_scan_user                                  .build/obj_cool836A_verB_RED_default/quantum/matrix_common.o
matrix_setup                                      .build/obj_cool836A_verB_RED_default/common/keyboard.o
mk_delay                                          .build/obj_cool836A_verB_RED_default/common/mousekey.o
mk_interval                                       .build/obj_cool836A_verB_RED_default/common/mousekey.o
mk_max_speed                                      .build/obj_cool836A_verB_RED_default/common/mousekey.o
mk_time_to_max                                    .build/obj_cool836A_verB_RED_default/common/mousekey.o
mk_wheel_delay                                    .build/obj_cool836A_verB_RED_default/common/mousekey.o
mk_wheel_interval                                 .build/obj_cool836A_verB_RED_default/common/mousekey.o
mk_wheel_max_speed                                .build/obj_cool836A_verB_RED_default/common/mousekey.o
mk_wheel_time_to_max                              .build/obj_cool836A_verB_RED_default/common/mousekey.o
mod_config                                        .build/obj_cool836A_verB_RED_default/quantum/keycode_config.o
                                                  .build/obj_cool836A_verB_RED_default/quantum/keymap_common.o
mousekey_clear                                    .build/obj_cool836A_verB_RED_default/common/mousekey.o
                                                  .build/obj_cool836A_verB_RED_default/common/action.o
mousekey_off                                      .build/obj_cool836A_verB_RED_default/common/mousekey.o
                                                  .build/obj_cool836A_verB_RED_default/common/action.o
mousekey_on                                       .build/obj_cool836A_verB_RED_default/common/mousekey.o
                                                  .build/obj_cool836A_verB_RED_default/common/action.o
mousekey_send                                     .build/obj_cool836A_verB_RED_default/common/mousekey.o
                                                  .build/obj_cool836A_verB_RED_default/common/action.o
mousekey_task                                     .build/obj_cool836A_verB_RED_default/common/mousekey.o
                                                  .build/obj_cool836A_verB_RED_default/common/keyboard.o
oneshot_layer_changed_kb                          .build/obj_cool836A_verB_RED_default/common/action_util.o
oneshot_layer_changed_user                        .build/obj_cool836A_verB_RED_default/common/action_util.o
oneshot_locked_mods_changed_kb                    .build/obj_cool836A_verB_RED_default/common/action_util.o
oneshot_locked_mods_changed_user                  .build/obj_cool836A_verB_RED_default/common/action_util.o
oneshot_mods_changed_kb                           .build/obj_cool836A_verB_RED_default/common/action_util.o
oneshot_mods_changed_user                         .build/obj_cool836A_verB_RED_default/common/action_util.o
peek_matrix                                       .build/obj_cool836A_verB_RED_default/quantum/matrix_common.o
perform_space_cadet                               .build/obj_cool836A_verB_RED_default/quantum/process_keycode/process_space_cadet.o
post_process_record_kb                            .build/obj_cool836A_verB_RED_default/quantum/quantum.o
post_process_record_quantum                       .build/obj_cool836A_verB_RED_default/quantum/quantum.o
post_process_record_user                          .build/obj_cool836A_verB_RED_default/quantum/quantum.o
process_action                                    .build/obj_cool836A_verB_RED_default/common/action.o
process_action_kb                                 .build/obj_cool836A_verB_RED_default/quantum/quantum.o
process_grave_esc                                 .build/obj_cool836A_verB_RED_default/quantum/process_keycode/process_grave_esc.o
                                                  .build/obj_cool836A_verB_RED_default/quantum/quantum.o
process_magic                                     .build/obj_cool836A_verB_RED_default/quantum/process_keycode/process_magic.o
                                                  .build/obj_cool836A_verB_RED_default/quantum/quantum.o
process_record                                    .build/obj_cool836A_verB_RED_default/common/action.o
                                                  .build/obj_cool836A_verB_RED_default/common/action_tapping.o
process_record_handler                            .build/obj_cool836A_verB_RED_default/common/action.o
process_record_kb                                 .build/obj_cool836A_verB_RED_default/quantum/quantum.o
process_record_nocache                            .build/obj_cool836A_verB_RED_default/common/action.o
process_record_quantum                            .build/obj_cool836A_verB_RED_default/quantum/quantum.o
process_record_tap_hint                           .build/obj_cool836A_verB_RED_default/common/action.o
                                                  .build/obj_cool836A_verB_RED_default/common/action_tapping.o
process_record_user                               .build/obj_cool836A_verB_RED_default/quantum/quantum.o
process_space_cadet                               .build/obj_cool836A_verB_RED_default/quantum/process_keycode/process_space_cadet.o
                                                  .build/obj_cool836A_verB_RED_default/quantum/quantum.o
raw_matrix                                        .build/obj_cool836A_verB_RED_default/quantum/matrix_common.o
                                                  .build/obj_cool836A_verB_RED_default/quantum/matrix.o
read_source_layers_cache                          .build/obj_cool836A_verB_RED_default/common/action_layer.o
                                                  .build/obj_cool836A_verB_RED_default/quantum/quantum.o
register_code                                     .build/obj_cool836A_verB_RED_default/common/action.o
                                                  .build/obj_cool836A_verB_RED_default/quantum/quantum.o
register_code16                                   .build/obj_cool836A_verB_RED_default/quantum/quantum.o
register_mods                                     .build/obj_cool836A_verB_RED_default/common/action.o
                                                  .build/obj_cool836A_verB_RED_default/quantum/process_keycode/process_space_cadet.o
                                                  .build/obj_cool836A_verB_RED_default/quantum/quantum.o
register_weak_mods                                .build/obj_cool836A_verB_RED_default/common/action.o
                                                  .build/obj_cool836A_verB_RED_default/quantum/quantum.o
reset_key                                         .build/obj_cool836A_verB_RED_default/common/avr/bootloader.o
reset_keyboard                                    .build/obj_cool836A_verB_RED_default/quantum/quantum.o
reset_oneshot_layer                               .build/obj_cool836A_verB_RED_default/common/action_util.o
send_byte                                         .build/obj_cool836A_verB_RED_default/quantum/quantum.o
send_char                                         .build/obj_cool836A_verB_RED_default/quantum/quantum.o
send_dword                                        .build/obj_cool836A_verB_RED_default/quantum/quantum.o
send_keyboard_report                              .build/obj_cool836A_verB_RED_default/common/action_util.o
                                                  .build/obj_cool836A_verB_RED_default/common/action.o
                                                  .build/obj_cool836A_verB_RED_default/quantum/process_keycode/process_grave_esc.o
send_nibble                                       .build/obj_cool836A_verB_RED_default/quantum/quantum.o
send_string                                       .build/obj_cool836A_verB_RED_default/quantum/quantum.o
send_string_P                                     .build/obj_cool836A_verB_RED_default/quantum/quantum.o
send_string_with_delay                            .build/obj_cool836A_verB_RED_default/quantum/quantum.o
send_string_with_delay_P                          .build/obj_cool836A_verB_RED_default/quantum/quantum.o
send_word                                         .build/obj_cool836A_verB_RED_default/quantum/quantum.o
sendchar                                          .build/obj_cool836A_verB_RED_default/common/sendchar_null.o
set_macro_mods                                    .build/obj_cool836A_verB_RED_default/common/action_util.o
set_mods                                          .build/obj_cool836A_verB_RED_default/common/action_util.o
set_oneshot_layer                                 .build/obj_cool836A_verB_RED_default/common/action_util.o
                                                  .build/obj_cool836A_verB_RED_default/common/action.o
set_oneshot_locked_mods                           .build/obj_cool836A_verB_RED_default/common/action_util.o
set_oneshot_mods                                  .build/obj_cool836A_verB_RED_default/common/action_util.o
                                                  .build/obj_cool836A_verB_RED_default/common/action.o
set_single_persistent_default_layer               .build/obj_cool836A_verB_RED_default/quantum/quantum.o
set_weak_mods                                     .build/obj_cool836A_verB_RED_default/common/action_util.o
should_process_keypress                           .build/obj_cool836A_verB_RED_default/common/keyboard.o
shutdown_user                                     .build/obj_cool836A_verB_RED_default/quantum/quantum.o
source_layers_cache                               .build/obj_cool836A_verB_RED_default/common/action_layer.o
startup_user                                      .build/obj_cool836A_verB_RED_default/quantum/quantum.o
store_or_get_action                               .build/obj_cool836A_verB_RED_default/common/action_layer.o
                                                  .build/obj_cool836A_verB_RED_default/common/action.o
suspend_idle                                      .build/obj_cool836A_verB_RED_default/common/avr/suspend.o
suspend_power_down                                .build/obj_cool836A_verB_RED_default/common/avr/suspend.o
                                                  .build/obj_cool836A_verB_RED_default/lufa.o
suspend_power_down_kb                             .build/obj_cool836A_verB_RED_default/common/avr/suspend.o
suspend_power_down_user                           .build/obj_cool836A_verB_RED_default/common/avr/suspend.o
suspend_wakeup_condition                          .build/obj_cool836A_verB_RED_default/common/avr/suspend.o
                                                  .build/obj_cool836A_verB_RED_default/lufa.o
suspend_wakeup_init                               .build/obj_cool836A_verB_RED_default/common/avr/suspend.o
                                                  .build/obj_cool836A_verB_RED_default/lufa.o
suspend_wakeup_init_kb                            .build/obj_cool836A_verB_RED_default/common/avr/suspend.o
suspend_wakeup_init_user                          .build/obj_cool836A_verB_RED_default/common/avr/suspend.o
tap_code                                          .build/obj_cool836A_verB_RED_default/common/action.o
                                                  .build/obj_cool836A_verB_RED_default/quantum/process_keycode/process_space_cadet.o
                                                  .build/obj_cool836A_verB_RED_default/quantum/quantum.o
tap_code16                                        .build/obj_cool836A_verB_RED_default/quantum/quantum.o
tap_random_base64                                 .build/obj_cool836A_verB_RED_default/quantum/quantum.o
timer_clear                                       .build/obj_cool836A_verB_RED_default/common/avr/timer.o
timer_count                                       .build/obj_cool836A_verB_RED_default/common/avr/timer.o
                                                  .build/obj_cool836A_verB_RED_default/common/avr/suspend.o
timer_elapsed                                     .build/obj_cool836A_verB_RED_default/common/avr/timer.o
                                                  .build/obj_cool836A_verB_RED_default/common/mousekey.o
                                                  .build/obj_cool836A_verB_RED_default/quantum/process_keycode/process_space_cadet.o
                                                  .build/obj_cool836A_verB_RED_default/quantum/debounce/sym_defer_g.o
timer_elapsed32                                   .build/obj_cool836A_verB_RED_default/common/avr/timer.o
timer_init                                        .build/obj_cool836A_verB_RED_default/common/avr/timer.o
                                                  .build/obj_cool836A_verB_RED_default/common/keyboard.o
timer_read                                        .build/obj_cool836A_verB_RED_default/common/avr/timer.o
                                                  .build/obj_cool836A_verB_RED_default/common/mousekey.o
                                                  .build/obj_cool836A_verB_RED_default/common/keyboard.o
                                                  .build/obj_cool836A_verB_RED_default/quantum/process_keycode/process_space_cadet.o
                                                  .build/obj_cool836A_verB_RED_default/quantum/debounce/sym_defer_g.o
timer_read32                                      .build/obj_cool836A_verB_RED_default/common/avr/timer.o
tp_buttons                                        .build/obj_cool836A_verB_RED_default/common/action.o
unregister_code                                   .build/obj_cool836A_verB_RED_default/common/action.o
                                                  .build/obj_cool836A_verB_RED_default/quantum/quantum.o
unregister_code16                                 .build/obj_cool836A_verB_RED_default/quantum/quantum.o
unregister_mods                                   .build/obj_cool836A_verB_RED_default/common/action.o
                                                  .build/obj_cool836A_verB_RED_default/quantum/process_keycode/process_space_cadet.o
                                                  .build/obj_cool836A_verB_RED_default/quantum/quantum.o
unregister_weak_mods                              .build/obj_cool836A_verB_RED_default/common/action.o
                                                  .build/obj_cool836A_verB_RED_default/quantum/quantum.o
update_source_layers_cache                        .build/obj_cool836A_verB_RED_default/common/action_layer.o
                                                  .build/obj_cool836A_verB_RED_default/quantum/quantum.o
update_tri_layer                                  .build/obj_cool836A_verB_RED_default/quantum/quantum.o
update_tri_layer_state                            .build/obj_cool836A_verB_RED_default/quantum/quantum.o
xfunc_out                                         .build/obj_cool836A_verB_RED_default/common/avr/xprintf.o
xitoa                                             .build/obj_cool836A_verB_RED_default/common/avr/xprintf.o
xputc                                             .build/obj_cool836A_verB_RED_default/common/avr/xprintf.o
xputs                                             .build/obj_cool836A_verB_RED_default/common/avr/xprintf.o
